ARM GAS  C:\Users\Patrick\AppData\Local\Temp\cc7hK0kh.s 			page 1


   1              		.cpu cortex-m0
   2              		.fpu softvfp
   3              		.eabi_attribute 20, 1	@ Tag_ABI_FP_denormal
   4              		.eabi_attribute 21, 1	@ Tag_ABI_FP_exceptions
   5              		.eabi_attribute 23, 3	@ Tag_ABI_FP_number_model
   6              		.eabi_attribute 24, 1	@ Tag_ABI_align8_needed
   7              		.eabi_attribute 25, 1	@ Tag_ABI_align8_preserved
   8              		.eabi_attribute 26, 1	@ Tag_ABI_enum_size
   9              		.eabi_attribute 30, 4	@ Tag_ABI_optimization_goals
  10              		.eabi_attribute 34, 0	@ Tag_CPU_unaligned_access
  11              		.eabi_attribute 18, 4	@ Tag_ABI_PCS_wchar_t
  12              		.file	"stm32f0xx_gpio.c"
  13              	@ GNU C (GNU Tools for ARM Embedded Processors) version 4.8.3 20131129 (release) [ARM/embedded-4_8-
  14              	@	compiled by GNU C version 4.2.1-sjlj (mingw32-2), GMP version 4.3.2, MPFR version 2.4.2, MPC vers
  15              	@ GGC heuristics: --param ggc-min-expand=100 --param ggc-min-heapsize=131072
  16              	@ options passed:  -I .
  17              	@ -I ..\..\STM32F0-Discovery_FW_V1.0.0\Libraries\CMSIS\ST\STM32F0xx\Include
  18              	@ -I ..\..\STM32F0-Discovery_FW_V1.0.0\Libraries\CMSIS\Include
  19              	@ -I ..\..\STM32F0-Discovery_FW_V1.0.0\Libraries\STM32F0xx_StdPeriph_Driver\inc
  20              	@ -I ..\..\STM32F0-Discovery_FW_V1.0.0\Utilities\STM32F0-Discovery -I .\inc
  21              	@ -imultilib armv6-m
  22              	@ -iprefix c:\program files (x86)\gnu tools arm embedded\4.8 2013q4\bin\../lib/gcc/arm-none-eabi/4.
  23              	@ -isysroot c:\program files (x86)\gnu tools arm embedded\4.8 2013q4\bin\../arm-none-eabi
  24              	@ -MD ..\..\STM32F0-Discovery_FW_V1.0.0\Libraries\STM32F0xx_StdPeriph_Driver\src\stm32f0xx_gpio.d
  25              	@ -MF .dep\stm32f0xx_gpio.o.d -MP
  26              	@ -MQ ..\..\STM32F0-Discovery_FW_V1.0.0\Libraries\STM32F0xx_StdPeriph_Driver\src\stm32f0xx_gpio.o
  27              	@ -D__USES_INITFINI__ -D STM32F0XX -D USE_STDPERIPH_DRIVER
  28              	@ -D RUN_FROM_FLASH=1
  29              	@ ..\..\STM32F0-Discovery_FW_V1.0.0\Libraries\STM32F0xx_StdPeriph_Driver\src\stm32f0xx_gpio.c
  30              	@ -mcpu=cortex-m0 -mthumb
  31              	@ -auxbase-strip ..\..\STM32F0-Discovery_FW_V1.0.0\Libraries\STM32F0xx_StdPeriph_Driver\src\stm32f0
  32              	@ -gdwarf-2 -Os -Wall -Wstrict-prototypes -fomit-frame-pointer
  33              	@ -fverbose-asm
  34              	@ options enabled:  -faggressive-loop-optimizations -fauto-inc-dec
  35              	@ -fbranch-count-reg -fcaller-saves -fcombine-stack-adjustments -fcommon
  36              	@ -fcompare-elim -fcprop-registers -fcrossjumping -fcse-follow-jumps
  37              	@ -fdefer-pop -fdelete-null-pointer-checks -fdevirtualize -fdwarf2-cfi-asm
  38              	@ -fearly-inlining -feliminate-unused-debug-types -fexpensive-optimizations
  39              	@ -fforward-propagate -ffunction-cse -fgcse -fgcse-lm -fgnu-runtime
  40              	@ -fguess-branch-probability -fhoist-adjacent-loads -fident -fif-conversion
  41              	@ -fif-conversion2 -findirect-inlining -finline -finline-atomics
  42              	@ -finline-functions -finline-functions-called-once
  43              	@ -finline-small-functions -fipa-cp -fipa-profile -fipa-pure-const
  44              	@ -fipa-reference -fipa-sra -fira-hoist-pressure -fira-share-save-slots
  45              	@ -fira-share-spill-slots -fivopts -fkeep-static-consts
  46              	@ -fleading-underscore -fmath-errno -fmerge-constants -fmerge-debug-strings
  47              	@ -fomit-frame-pointer -foptimize-register-move -foptimize-sibling-calls
  48              	@ -fpartial-inlining -fpeephole -fpeephole2 -fprefetch-loop-arrays
  49              	@ -freg-struct-return -fregmove -freorder-blocks -freorder-functions
  50              	@ -frerun-cse-after-loop -fsched-critical-path-heuristic
  51              	@ -fsched-dep-count-heuristic -fsched-group-heuristic -fsched-interblock
  52              	@ -fsched-last-insn-heuristic -fsched-pressure -fsched-rank-heuristic
  53              	@ -fsched-spec -fsched-spec-insn-heuristic -fsched-stalled-insns-dep
  54              	@ -fschedule-insns2 -fsection-anchors -fshow-column -fshrink-wrap
  55              	@ -fsigned-zeros -fsplit-ivs-in-unroller -fsplit-wide-types
  56              	@ -fstrict-aliasing -fstrict-overflow -fstrict-volatile-bitfields
  57              	@ -fsync-libcalls -fthread-jumps -ftoplevel-reorder -ftrapping-math
ARM GAS  C:\Users\Patrick\AppData\Local\Temp\cc7hK0kh.s 			page 2


  58              	@ -ftree-bit-ccp -ftree-builtin-call-dce -ftree-ccp -ftree-ch
  59              	@ -ftree-coalesce-vars -ftree-copy-prop -ftree-copyrename -ftree-cselim
  60              	@ -ftree-dce -ftree-dominator-opts -ftree-dse -ftree-forwprop -ftree-fre
  61              	@ -ftree-loop-if-convert -ftree-loop-im -ftree-loop-ivcanon
  62              	@ -ftree-loop-optimize -ftree-parallelize-loops= -ftree-phiprop -ftree-pre
  63              	@ -ftree-pta -ftree-reassoc -ftree-scev-cprop -ftree-sink
  64              	@ -ftree-slp-vectorize -ftree-slsr -ftree-sra -ftree-switch-conversion
  65              	@ -ftree-tail-merge -ftree-ter -ftree-vect-loop-version -ftree-vrp
  66              	@ -funit-at-a-time -fvar-tracking -fvar-tracking-assignments -fverbose-asm
  67              	@ -fzero-initialized-in-bss -mlittle-endian -mpic-data-is-text-relative
  68              	@ -msched-prolog -mthumb -mvectorize-with-neon-quad
  69              	
  70              		.text
  71              	.Ltext0:
  72              		.cfi_sections	.debug_frame
  73              		.align	1
  74              		.global	GPIO_DeInit
  75              		.code	16
  76              		.thumb_func
  77              		.type	GPIO_DeInit, %function
  78              	GPIO_DeInit:
  79              	.LFB32:
  80              		.file 1 "..\\..\\STM32F0-Discovery_FW_V1.0.0\\Libraries\\STM32F0xx_StdPeriph_Driver\\src\\stm32f0x
   1:..\..\STM32F0-Discovery_FW_V1.0.0\Libraries\STM32F0xx_StdPeriph_Driver\src/stm32f0xx_gpio.c **** /**
   2:..\..\STM32F0-Discovery_FW_V1.0.0\Libraries\STM32F0xx_StdPeriph_Driver\src/stm32f0xx_gpio.c ****   ******************************************************************************
   3:..\..\STM32F0-Discovery_FW_V1.0.0\Libraries\STM32F0xx_StdPeriph_Driver\src/stm32f0xx_gpio.c ****   * @file    stm32f0xx_gpio.c
   4:..\..\STM32F0-Discovery_FW_V1.0.0\Libraries\STM32F0xx_StdPeriph_Driver\src/stm32f0xx_gpio.c ****   * @author  MCD Application Team
   5:..\..\STM32F0-Discovery_FW_V1.0.0\Libraries\STM32F0xx_StdPeriph_Driver\src/stm32f0xx_gpio.c ****   * @version V1.0.0
   6:..\..\STM32F0-Discovery_FW_V1.0.0\Libraries\STM32F0xx_StdPeriph_Driver\src/stm32f0xx_gpio.c ****   * @date    23-March-2012
   7:..\..\STM32F0-Discovery_FW_V1.0.0\Libraries\STM32F0xx_StdPeriph_Driver\src/stm32f0xx_gpio.c ****   * @brief   This file provides firmware functions to manage the following 
   8:..\..\STM32F0-Discovery_FW_V1.0.0\Libraries\STM32F0xx_StdPeriph_Driver\src/stm32f0xx_gpio.c ****   *          functionalities of the GPIO peripheral:
   9:..\..\STM32F0-Discovery_FW_V1.0.0\Libraries\STM32F0xx_StdPeriph_Driver\src/stm32f0xx_gpio.c ****   *           + Initialization and Configuration functions
  10:..\..\STM32F0-Discovery_FW_V1.0.0\Libraries\STM32F0xx_StdPeriph_Driver\src/stm32f0xx_gpio.c ****   *           + GPIO Read and Write functions
  11:..\..\STM32F0-Discovery_FW_V1.0.0\Libraries\STM32F0xx_StdPeriph_Driver\src/stm32f0xx_gpio.c ****   *           + GPIO Alternate functions configuration functions
  12:..\..\STM32F0-Discovery_FW_V1.0.0\Libraries\STM32F0xx_StdPeriph_Driver\src/stm32f0xx_gpio.c ****   *
  13:..\..\STM32F0-Discovery_FW_V1.0.0\Libraries\STM32F0xx_StdPeriph_Driver\src/stm32f0xx_gpio.c ****   *  @verbatim
  14:..\..\STM32F0-Discovery_FW_V1.0.0\Libraries\STM32F0xx_StdPeriph_Driver\src/stm32f0xx_gpio.c ****   *
  15:..\..\STM32F0-Discovery_FW_V1.0.0\Libraries\STM32F0xx_StdPeriph_Driver\src/stm32f0xx_gpio.c ****   *
  16:..\..\STM32F0-Discovery_FW_V1.0.0\Libraries\STM32F0xx_StdPeriph_Driver\src/stm32f0xx_gpio.c ****     ===========================================================================
  17:..\..\STM32F0-Discovery_FW_V1.0.0\Libraries\STM32F0xx_StdPeriph_Driver\src/stm32f0xx_gpio.c ****                          ##### How to use this driver #####
  18:..\..\STM32F0-Discovery_FW_V1.0.0\Libraries\STM32F0xx_StdPeriph_Driver\src/stm32f0xx_gpio.c ****     ===========================================================================
  19:..\..\STM32F0-Discovery_FW_V1.0.0\Libraries\STM32F0xx_StdPeriph_Driver\src/stm32f0xx_gpio.c ****       [..]
  20:..\..\STM32F0-Discovery_FW_V1.0.0\Libraries\STM32F0xx_StdPeriph_Driver\src/stm32f0xx_gpio.c ****       (#) Enable the GPIO AHB clock using RCC_AHBPeriphClockCmd()
  21:..\..\STM32F0-Discovery_FW_V1.0.0\Libraries\STM32F0xx_StdPeriph_Driver\src/stm32f0xx_gpio.c ****       (#) Configure the GPIO pin(s) using GPIO_Init()
  22:..\..\STM32F0-Discovery_FW_V1.0.0\Libraries\STM32F0xx_StdPeriph_Driver\src/stm32f0xx_gpio.c ****           Four possible configuration are available for each pin:
  23:..\..\STM32F0-Discovery_FW_V1.0.0\Libraries\STM32F0xx_StdPeriph_Driver\src/stm32f0xx_gpio.c ****          (++) Input: Floating, Pull-up, Pull-down.
  24:..\..\STM32F0-Discovery_FW_V1.0.0\Libraries\STM32F0xx_StdPeriph_Driver\src/stm32f0xx_gpio.c ****          (++) Output: Push-Pull (Pull-up, Pull-down or no Pull)
  25:..\..\STM32F0-Discovery_FW_V1.0.0\Libraries\STM32F0xx_StdPeriph_Driver\src/stm32f0xx_gpio.c ****                       Open Drain (Pull-up, Pull-down or no Pull).
  26:..\..\STM32F0-Discovery_FW_V1.0.0\Libraries\STM32F0xx_StdPeriph_Driver\src/stm32f0xx_gpio.c ****               In output mode, the speed is configurable: Low, Medium, Fast or High.
  27:..\..\STM32F0-Discovery_FW_V1.0.0\Libraries\STM32F0xx_StdPeriph_Driver\src/stm32f0xx_gpio.c ****          (++) Alternate Function: Push-Pull (Pull-up, Pull-down or no Pull)
  28:..\..\STM32F0-Discovery_FW_V1.0.0\Libraries\STM32F0xx_StdPeriph_Driver\src/stm32f0xx_gpio.c ****                                   Open Drain (Pull-up, Pull-down or no Pull).
  29:..\..\STM32F0-Discovery_FW_V1.0.0\Libraries\STM32F0xx_StdPeriph_Driver\src/stm32f0xx_gpio.c ****          (++) Analog: required mode when a pin is to be used as ADC channel,
  30:..\..\STM32F0-Discovery_FW_V1.0.0\Libraries\STM32F0xx_StdPeriph_Driver\src/stm32f0xx_gpio.c ****               DAC output or comparator input.
  31:..\..\STM32F0-Discovery_FW_V1.0.0\Libraries\STM32F0xx_StdPeriph_Driver\src/stm32f0xx_gpio.c ****       (#) Peripherals alternate function:
  32:..\..\STM32F0-Discovery_FW_V1.0.0\Libraries\STM32F0xx_StdPeriph_Driver\src/stm32f0xx_gpio.c ****          (++) For ADC, DAC and comparators, configure the desired pin in analog 
  33:..\..\STM32F0-Discovery_FW_V1.0.0\Libraries\STM32F0xx_StdPeriph_Driver\src/stm32f0xx_gpio.c ****               mode using GPIO_InitStruct->GPIO_Mode = GPIO_Mode_AN
  34:..\..\STM32F0-Discovery_FW_V1.0.0\Libraries\STM32F0xx_StdPeriph_Driver\src/stm32f0xx_gpio.c ****          (++) For other peripherals (TIM, USART...):
ARM GAS  C:\Users\Patrick\AppData\Local\Temp\cc7hK0kh.s 			page 3


  35:..\..\STM32F0-Discovery_FW_V1.0.0\Libraries\STM32F0xx_StdPeriph_Driver\src/stm32f0xx_gpio.c ****               (+++) Connect the pin to the desired peripherals' Alternate 
  36:..\..\STM32F0-Discovery_FW_V1.0.0\Libraries\STM32F0xx_StdPeriph_Driver\src/stm32f0xx_gpio.c ****                     Function (AF) using GPIO_PinAFConfig() function. For PortC, 
  37:..\..\STM32F0-Discovery_FW_V1.0.0\Libraries\STM32F0xx_StdPeriph_Driver\src/stm32f0xx_gpio.c ****                     PortD and PortF, no configuration is needed.
  38:..\..\STM32F0-Discovery_FW_V1.0.0\Libraries\STM32F0xx_StdPeriph_Driver\src/stm32f0xx_gpio.c ****               (+++) Configure the desired pin in alternate function mode using
  39:..\..\STM32F0-Discovery_FW_V1.0.0\Libraries\STM32F0xx_StdPeriph_Driver\src/stm32f0xx_gpio.c ****                     GPIO_InitStruct->GPIO_Mode = GPIO_Mode_AF
  40:..\..\STM32F0-Discovery_FW_V1.0.0\Libraries\STM32F0xx_StdPeriph_Driver\src/stm32f0xx_gpio.c ****               (+++) Select the type, pull-up/pull-down and output speed via 
  41:..\..\STM32F0-Discovery_FW_V1.0.0\Libraries\STM32F0xx_StdPeriph_Driver\src/stm32f0xx_gpio.c ****                     GPIO_PuPd, GPIO_OType and GPIO_Speed members
  42:..\..\STM32F0-Discovery_FW_V1.0.0\Libraries\STM32F0xx_StdPeriph_Driver\src/stm32f0xx_gpio.c ****               (+++) Call GPIO_Init() function
  43:..\..\STM32F0-Discovery_FW_V1.0.0\Libraries\STM32F0xx_StdPeriph_Driver\src/stm32f0xx_gpio.c ****       (#) To get the level of a pin configured in input mode use GPIO_ReadInputDataBit()
  44:..\..\STM32F0-Discovery_FW_V1.0.0\Libraries\STM32F0xx_StdPeriph_Driver\src/stm32f0xx_gpio.c ****       (#) To set/reset the level of a pin configured in output mode use
  45:..\..\STM32F0-Discovery_FW_V1.0.0\Libraries\STM32F0xx_StdPeriph_Driver\src/stm32f0xx_gpio.c ****           GPIO_SetBits()/GPIO_ResetBits()
  46:..\..\STM32F0-Discovery_FW_V1.0.0\Libraries\STM32F0xx_StdPeriph_Driver\src/stm32f0xx_gpio.c ****       (#) During and just after reset, the alternate functions are not active and 
  47:..\..\STM32F0-Discovery_FW_V1.0.0\Libraries\STM32F0xx_StdPeriph_Driver\src/stm32f0xx_gpio.c ****           the GPIO pins are configured in input floating mode (except JTAG pins).
  48:..\..\STM32F0-Discovery_FW_V1.0.0\Libraries\STM32F0xx_StdPeriph_Driver\src/stm32f0xx_gpio.c ****       (#) The LSE oscillator pins OSC32_IN and OSC32_OUT can be used as 
  49:..\..\STM32F0-Discovery_FW_V1.0.0\Libraries\STM32F0xx_StdPeriph_Driver\src/stm32f0xx_gpio.c ****           general-purpose (PC14 and PC15, respectively) when the LSE oscillator 
  50:..\..\STM32F0-Discovery_FW_V1.0.0\Libraries\STM32F0xx_StdPeriph_Driver\src/stm32f0xx_gpio.c ****           is off. The LSE has priority over the GPIO function.
  51:..\..\STM32F0-Discovery_FW_V1.0.0\Libraries\STM32F0xx_StdPeriph_Driver\src/stm32f0xx_gpio.c ****       (#) The HSE oscillator pins OSC_IN/OSC_OUT can be used as general-purpose 
  52:..\..\STM32F0-Discovery_FW_V1.0.0\Libraries\STM32F0xx_StdPeriph_Driver\src/stm32f0xx_gpio.c ****           PD0 and PD1, respectively, when the HSE oscillator is off. The HSE has 
  53:..\..\STM32F0-Discovery_FW_V1.0.0\Libraries\STM32F0xx_StdPeriph_Driver\src/stm32f0xx_gpio.c ****           priority over the GPIO function.
  54:..\..\STM32F0-Discovery_FW_V1.0.0\Libraries\STM32F0xx_StdPeriph_Driver\src/stm32f0xx_gpio.c ****     @endverbatim
  55:..\..\STM32F0-Discovery_FW_V1.0.0\Libraries\STM32F0xx_StdPeriph_Driver\src/stm32f0xx_gpio.c ****   ******************************************************************************
  56:..\..\STM32F0-Discovery_FW_V1.0.0\Libraries\STM32F0xx_StdPeriph_Driver\src/stm32f0xx_gpio.c ****   * @attention
  57:..\..\STM32F0-Discovery_FW_V1.0.0\Libraries\STM32F0xx_StdPeriph_Driver\src/stm32f0xx_gpio.c ****   *
  58:..\..\STM32F0-Discovery_FW_V1.0.0\Libraries\STM32F0xx_StdPeriph_Driver\src/stm32f0xx_gpio.c ****   * <h2><center>&copy; COPYRIGHT 2012 STMicroelectronics</center></h2>
  59:..\..\STM32F0-Discovery_FW_V1.0.0\Libraries\STM32F0xx_StdPeriph_Driver\src/stm32f0xx_gpio.c ****   *
  60:..\..\STM32F0-Discovery_FW_V1.0.0\Libraries\STM32F0xx_StdPeriph_Driver\src/stm32f0xx_gpio.c ****   * Licensed under MCD-ST Liberty SW License Agreement V2, (the "License");
  61:..\..\STM32F0-Discovery_FW_V1.0.0\Libraries\STM32F0xx_StdPeriph_Driver\src/stm32f0xx_gpio.c ****   * You may not use this file except in compliance with the License.
  62:..\..\STM32F0-Discovery_FW_V1.0.0\Libraries\STM32F0xx_StdPeriph_Driver\src/stm32f0xx_gpio.c ****   * You may obtain a copy of the License at:
  63:..\..\STM32F0-Discovery_FW_V1.0.0\Libraries\STM32F0xx_StdPeriph_Driver\src/stm32f0xx_gpio.c ****   *
  64:..\..\STM32F0-Discovery_FW_V1.0.0\Libraries\STM32F0xx_StdPeriph_Driver\src/stm32f0xx_gpio.c ****   *        http://www.st.com/software_license_agreement_liberty_v2
  65:..\..\STM32F0-Discovery_FW_V1.0.0\Libraries\STM32F0xx_StdPeriph_Driver\src/stm32f0xx_gpio.c ****   *
  66:..\..\STM32F0-Discovery_FW_V1.0.0\Libraries\STM32F0xx_StdPeriph_Driver\src/stm32f0xx_gpio.c ****   * Unless required by applicable law or agreed to in writing, software 
  67:..\..\STM32F0-Discovery_FW_V1.0.0\Libraries\STM32F0xx_StdPeriph_Driver\src/stm32f0xx_gpio.c ****   * distributed under the License is distributed on an "AS IS" BASIS, 
  68:..\..\STM32F0-Discovery_FW_V1.0.0\Libraries\STM32F0xx_StdPeriph_Driver\src/stm32f0xx_gpio.c ****   * WITHOUT WARRANTIES OR CONDITIONS OF ANY KIND, either express or implied.
  69:..\..\STM32F0-Discovery_FW_V1.0.0\Libraries\STM32F0xx_StdPeriph_Driver\src/stm32f0xx_gpio.c ****   * See the License for the specific language governing permissions and
  70:..\..\STM32F0-Discovery_FW_V1.0.0\Libraries\STM32F0xx_StdPeriph_Driver\src/stm32f0xx_gpio.c ****   * limitations under the License.
  71:..\..\STM32F0-Discovery_FW_V1.0.0\Libraries\STM32F0xx_StdPeriph_Driver\src/stm32f0xx_gpio.c ****   *
  72:..\..\STM32F0-Discovery_FW_V1.0.0\Libraries\STM32F0xx_StdPeriph_Driver\src/stm32f0xx_gpio.c ****   ******************************************************************************
  73:..\..\STM32F0-Discovery_FW_V1.0.0\Libraries\STM32F0xx_StdPeriph_Driver\src/stm32f0xx_gpio.c ****   */
  74:..\..\STM32F0-Discovery_FW_V1.0.0\Libraries\STM32F0xx_StdPeriph_Driver\src/stm32f0xx_gpio.c **** 
  75:..\..\STM32F0-Discovery_FW_V1.0.0\Libraries\STM32F0xx_StdPeriph_Driver\src/stm32f0xx_gpio.c **** /* Includes ------------------------------------------------------------------*/
  76:..\..\STM32F0-Discovery_FW_V1.0.0\Libraries\STM32F0xx_StdPeriph_Driver\src/stm32f0xx_gpio.c **** #include "stm32f0xx_gpio.h"
  77:..\..\STM32F0-Discovery_FW_V1.0.0\Libraries\STM32F0xx_StdPeriph_Driver\src/stm32f0xx_gpio.c **** #include "stm32f0xx_rcc.h"
  78:..\..\STM32F0-Discovery_FW_V1.0.0\Libraries\STM32F0xx_StdPeriph_Driver\src/stm32f0xx_gpio.c **** 
  79:..\..\STM32F0-Discovery_FW_V1.0.0\Libraries\STM32F0xx_StdPeriph_Driver\src/stm32f0xx_gpio.c **** /** @addtogroup STM32F0xx_StdPeriph_Driver
  80:..\..\STM32F0-Discovery_FW_V1.0.0\Libraries\STM32F0xx_StdPeriph_Driver\src/stm32f0xx_gpio.c ****   * @{
  81:..\..\STM32F0-Discovery_FW_V1.0.0\Libraries\STM32F0xx_StdPeriph_Driver\src/stm32f0xx_gpio.c ****   */
  82:..\..\STM32F0-Discovery_FW_V1.0.0\Libraries\STM32F0xx_StdPeriph_Driver\src/stm32f0xx_gpio.c **** 
  83:..\..\STM32F0-Discovery_FW_V1.0.0\Libraries\STM32F0xx_StdPeriph_Driver\src/stm32f0xx_gpio.c **** /** @defgroup GPIO 
  84:..\..\STM32F0-Discovery_FW_V1.0.0\Libraries\STM32F0xx_StdPeriph_Driver\src/stm32f0xx_gpio.c ****   * @brief GPIO driver modules
  85:..\..\STM32F0-Discovery_FW_V1.0.0\Libraries\STM32F0xx_StdPeriph_Driver\src/stm32f0xx_gpio.c ****   * @{
  86:..\..\STM32F0-Discovery_FW_V1.0.0\Libraries\STM32F0xx_StdPeriph_Driver\src/stm32f0xx_gpio.c ****   */
  87:..\..\STM32F0-Discovery_FW_V1.0.0\Libraries\STM32F0xx_StdPeriph_Driver\src/stm32f0xx_gpio.c **** 
  88:..\..\STM32F0-Discovery_FW_V1.0.0\Libraries\STM32F0xx_StdPeriph_Driver\src/stm32f0xx_gpio.c **** /* Private typedef -----------------------------------------------------------*/
  89:..\..\STM32F0-Discovery_FW_V1.0.0\Libraries\STM32F0xx_StdPeriph_Driver\src/stm32f0xx_gpio.c **** /* Private define ------------------------------------------------------------*/
  90:..\..\STM32F0-Discovery_FW_V1.0.0\Libraries\STM32F0xx_StdPeriph_Driver\src/stm32f0xx_gpio.c **** /* Private macro -------------------------------------------------------------*/
  91:..\..\STM32F0-Discovery_FW_V1.0.0\Libraries\STM32F0xx_StdPeriph_Driver\src/stm32f0xx_gpio.c **** /* Private variables ---------------------------------------------------------*/
ARM GAS  C:\Users\Patrick\AppData\Local\Temp\cc7hK0kh.s 			page 4


  92:..\..\STM32F0-Discovery_FW_V1.0.0\Libraries\STM32F0xx_StdPeriph_Driver\src/stm32f0xx_gpio.c **** /* Private function prototypes -----------------------------------------------*/
  93:..\..\STM32F0-Discovery_FW_V1.0.0\Libraries\STM32F0xx_StdPeriph_Driver\src/stm32f0xx_gpio.c **** /* Private functions ---------------------------------------------------------*/
  94:..\..\STM32F0-Discovery_FW_V1.0.0\Libraries\STM32F0xx_StdPeriph_Driver\src/stm32f0xx_gpio.c **** 
  95:..\..\STM32F0-Discovery_FW_V1.0.0\Libraries\STM32F0xx_StdPeriph_Driver\src/stm32f0xx_gpio.c **** /** @defgroup GPIO_Private_Functions 
  96:..\..\STM32F0-Discovery_FW_V1.0.0\Libraries\STM32F0xx_StdPeriph_Driver\src/stm32f0xx_gpio.c ****   * @{
  97:..\..\STM32F0-Discovery_FW_V1.0.0\Libraries\STM32F0xx_StdPeriph_Driver\src/stm32f0xx_gpio.c ****   */
  98:..\..\STM32F0-Discovery_FW_V1.0.0\Libraries\STM32F0xx_StdPeriph_Driver\src/stm32f0xx_gpio.c **** 
  99:..\..\STM32F0-Discovery_FW_V1.0.0\Libraries\STM32F0xx_StdPeriph_Driver\src/stm32f0xx_gpio.c **** /** @defgroup GPIO_Group1 Initialization and Configuration
 100:..\..\STM32F0-Discovery_FW_V1.0.0\Libraries\STM32F0xx_StdPeriph_Driver\src/stm32f0xx_gpio.c ****  *  @brief   Initialization and Configuration
 101:..\..\STM32F0-Discovery_FW_V1.0.0\Libraries\STM32F0xx_StdPeriph_Driver\src/stm32f0xx_gpio.c ****  *
 102:..\..\STM32F0-Discovery_FW_V1.0.0\Libraries\STM32F0xx_StdPeriph_Driver\src/stm32f0xx_gpio.c **** @verbatim
 103:..\..\STM32F0-Discovery_FW_V1.0.0\Libraries\STM32F0xx_StdPeriph_Driver\src/stm32f0xx_gpio.c ****  ===============================================================================
 104:..\..\STM32F0-Discovery_FW_V1.0.0\Libraries\STM32F0xx_StdPeriph_Driver\src/stm32f0xx_gpio.c ****                     ##### Initialization and Configuration #####
 105:..\..\STM32F0-Discovery_FW_V1.0.0\Libraries\STM32F0xx_StdPeriph_Driver\src/stm32f0xx_gpio.c ****  ===============================================================================
 106:..\..\STM32F0-Discovery_FW_V1.0.0\Libraries\STM32F0xx_StdPeriph_Driver\src/stm32f0xx_gpio.c **** 
 107:..\..\STM32F0-Discovery_FW_V1.0.0\Libraries\STM32F0xx_StdPeriph_Driver\src/stm32f0xx_gpio.c **** @endverbatim
 108:..\..\STM32F0-Discovery_FW_V1.0.0\Libraries\STM32F0xx_StdPeriph_Driver\src/stm32f0xx_gpio.c ****   * @{
 109:..\..\STM32F0-Discovery_FW_V1.0.0\Libraries\STM32F0xx_StdPeriph_Driver\src/stm32f0xx_gpio.c ****   */
 110:..\..\STM32F0-Discovery_FW_V1.0.0\Libraries\STM32F0xx_StdPeriph_Driver\src/stm32f0xx_gpio.c **** 
 111:..\..\STM32F0-Discovery_FW_V1.0.0\Libraries\STM32F0xx_StdPeriph_Driver\src/stm32f0xx_gpio.c **** /**
 112:..\..\STM32F0-Discovery_FW_V1.0.0\Libraries\STM32F0xx_StdPeriph_Driver\src/stm32f0xx_gpio.c ****   * @brief  Deinitializes the GPIOx peripheral registers to their default reset 
 113:..\..\STM32F0-Discovery_FW_V1.0.0\Libraries\STM32F0xx_StdPeriph_Driver\src/stm32f0xx_gpio.c ****   *         values.
 114:..\..\STM32F0-Discovery_FW_V1.0.0\Libraries\STM32F0xx_StdPeriph_Driver\src/stm32f0xx_gpio.c ****   * @param  GPIOx: where x can be (A, B, C, D or F) to select the GPIO peripheral.
 115:..\..\STM32F0-Discovery_FW_V1.0.0\Libraries\STM32F0xx_StdPeriph_Driver\src/stm32f0xx_gpio.c ****   * @retval None
 116:..\..\STM32F0-Discovery_FW_V1.0.0\Libraries\STM32F0xx_StdPeriph_Driver\src/stm32f0xx_gpio.c ****   */
 117:..\..\STM32F0-Discovery_FW_V1.0.0\Libraries\STM32F0xx_StdPeriph_Driver\src/stm32f0xx_gpio.c **** void GPIO_DeInit(GPIO_TypeDef* GPIOx)
 118:..\..\STM32F0-Discovery_FW_V1.0.0\Libraries\STM32F0xx_StdPeriph_Driver\src/stm32f0xx_gpio.c **** {
  81              		.loc 1 118 0
  82              		.cfi_startproc
  83              	.LVL0:
  84 0000 08B5     		push	{r3, lr}	@
  85              	.LCFI0:
  86              		.cfi_def_cfa_offset 8
  87              		.cfi_offset 3, -8
  88              		.cfi_offset 14, -4
 119:..\..\STM32F0-Discovery_FW_V1.0.0\Libraries\STM32F0xx_StdPeriph_Driver\src/stm32f0xx_gpio.c ****   /* Check the parameters */
 120:..\..\STM32F0-Discovery_FW_V1.0.0\Libraries\STM32F0xx_StdPeriph_Driver\src/stm32f0xx_gpio.c ****   assert_param(IS_GPIO_ALL_PERIPH(GPIOx));
 121:..\..\STM32F0-Discovery_FW_V1.0.0\Libraries\STM32F0xx_StdPeriph_Driver\src/stm32f0xx_gpio.c **** 
 122:..\..\STM32F0-Discovery_FW_V1.0.0\Libraries\STM32F0xx_StdPeriph_Driver\src/stm32f0xx_gpio.c ****   if(GPIOx == GPIOA)
  89              		.loc 1 122 0
  90 0002 9023     		mov	r3, #144	@ tmp136,
  91 0004 DB05     		lsl	r3, r3, #23	@ tmp111, tmp136,
  92 0006 9842     		cmp	r0, r3	@ GPIOx, tmp111
  93 0008 07D1     		bne	.L2	@,
 123:..\..\STM32F0-Discovery_FW_V1.0.0\Libraries\STM32F0xx_StdPeriph_Driver\src/stm32f0xx_gpio.c ****   {
 124:..\..\STM32F0-Discovery_FW_V1.0.0\Libraries\STM32F0xx_StdPeriph_Driver\src/stm32f0xx_gpio.c ****     RCC_AHBPeriphResetCmd(RCC_AHBPeriph_GPIOA, ENABLE);
  94              		.loc 1 124 0
  95 000a 8020     		mov	r0, #128	@ tmp134,
  96              	.LVL1:
  97 000c 8002     		lsl	r0, r0, #10	@, tmp134,
  98 000e 0121     		mov	r1, #1	@,
  99 0010 FFF7FEFF 		bl	RCC_AHBPeriphResetCmd	@
 100              	.LVL2:
 125:..\..\STM32F0-Discovery_FW_V1.0.0\Libraries\STM32F0xx_StdPeriph_Driver\src/stm32f0xx_gpio.c ****     RCC_AHBPeriphResetCmd(RCC_AHBPeriph_GPIOA, DISABLE);
 101              		.loc 1 125 0
 102 0014 8020     		mov	r0, #128	@ tmp135,
 103 0016 8002     		lsl	r0, r0, #10	@, tmp135,
ARM GAS  C:\Users\Patrick\AppData\Local\Temp\cc7hK0kh.s 			page 5


 104 0018 2AE0     		b	.L7	@
 105              	.LVL3:
 106              	.L2:
 126:..\..\STM32F0-Discovery_FW_V1.0.0\Libraries\STM32F0xx_StdPeriph_Driver\src/stm32f0xx_gpio.c ****   }
 127:..\..\STM32F0-Discovery_FW_V1.0.0\Libraries\STM32F0xx_StdPeriph_Driver\src/stm32f0xx_gpio.c ****   else if(GPIOx == GPIOB)
 107              		.loc 1 127 0
 108 001a 174B     		ldr	r3, .L9	@ tmp114,
 109 001c 9842     		cmp	r0, r3	@ GPIOx, tmp114
 110 001e 07D1     		bne	.L4	@,
 128:..\..\STM32F0-Discovery_FW_V1.0.0\Libraries\STM32F0xx_StdPeriph_Driver\src/stm32f0xx_gpio.c ****   {
 129:..\..\STM32F0-Discovery_FW_V1.0.0\Libraries\STM32F0xx_StdPeriph_Driver\src/stm32f0xx_gpio.c ****     RCC_AHBPeriphResetCmd(RCC_AHBPeriph_GPIOB, ENABLE);
 111              		.loc 1 129 0
 112 0020 8020     		mov	r0, #128	@ tmp132,
 113              	.LVL4:
 114 0022 C002     		lsl	r0, r0, #11	@, tmp132,
 115 0024 0121     		mov	r1, #1	@,
 116 0026 FFF7FEFF 		bl	RCC_AHBPeriphResetCmd	@
 117              	.LVL5:
 130:..\..\STM32F0-Discovery_FW_V1.0.0\Libraries\STM32F0xx_StdPeriph_Driver\src/stm32f0xx_gpio.c ****     RCC_AHBPeriphResetCmd(RCC_AHBPeriph_GPIOB, DISABLE);
 118              		.loc 1 130 0
 119 002a 8020     		mov	r0, #128	@ tmp133,
 120 002c C002     		lsl	r0, r0, #11	@, tmp133,
 121 002e 1FE0     		b	.L7	@
 122              	.LVL6:
 123              	.L4:
 131:..\..\STM32F0-Discovery_FW_V1.0.0\Libraries\STM32F0xx_StdPeriph_Driver\src/stm32f0xx_gpio.c ****   }
 132:..\..\STM32F0-Discovery_FW_V1.0.0\Libraries\STM32F0xx_StdPeriph_Driver\src/stm32f0xx_gpio.c ****   else if(GPIOx == GPIOC)
 124              		.loc 1 132 0
 125 0030 124B     		ldr	r3, .L9+4	@ tmp117,
 126 0032 9842     		cmp	r0, r3	@ GPIOx, tmp117
 127 0034 07D1     		bne	.L5	@,
 133:..\..\STM32F0-Discovery_FW_V1.0.0\Libraries\STM32F0xx_StdPeriph_Driver\src/stm32f0xx_gpio.c ****   {
 134:..\..\STM32F0-Discovery_FW_V1.0.0\Libraries\STM32F0xx_StdPeriph_Driver\src/stm32f0xx_gpio.c ****     RCC_AHBPeriphResetCmd(RCC_AHBPeriph_GPIOC, ENABLE);
 128              		.loc 1 134 0
 129 0036 8020     		mov	r0, #128	@ tmp130,
 130              	.LVL7:
 131 0038 0003     		lsl	r0, r0, #12	@, tmp130,
 132 003a 0121     		mov	r1, #1	@,
 133 003c FFF7FEFF 		bl	RCC_AHBPeriphResetCmd	@
 134              	.LVL8:
 135:..\..\STM32F0-Discovery_FW_V1.0.0\Libraries\STM32F0xx_StdPeriph_Driver\src/stm32f0xx_gpio.c ****     RCC_AHBPeriphResetCmd(RCC_AHBPeriph_GPIOC, DISABLE);
 135              		.loc 1 135 0
 136 0040 8020     		mov	r0, #128	@ tmp131,
 137 0042 0003     		lsl	r0, r0, #12	@, tmp131,
 138 0044 14E0     		b	.L7	@
 139              	.LVL9:
 140              	.L5:
 136:..\..\STM32F0-Discovery_FW_V1.0.0\Libraries\STM32F0xx_StdPeriph_Driver\src/stm32f0xx_gpio.c ****   }
 137:..\..\STM32F0-Discovery_FW_V1.0.0\Libraries\STM32F0xx_StdPeriph_Driver\src/stm32f0xx_gpio.c ****   else if(GPIOx == GPIOD)
 141              		.loc 1 137 0
 142 0046 0E4B     		ldr	r3, .L9+8	@ tmp120,
 143 0048 9842     		cmp	r0, r3	@ GPIOx, tmp120
 144 004a 07D1     		bne	.L6	@,
 138:..\..\STM32F0-Discovery_FW_V1.0.0\Libraries\STM32F0xx_StdPeriph_Driver\src/stm32f0xx_gpio.c ****   {
 139:..\..\STM32F0-Discovery_FW_V1.0.0\Libraries\STM32F0xx_StdPeriph_Driver\src/stm32f0xx_gpio.c ****     RCC_AHBPeriphResetCmd(RCC_AHBPeriph_GPIOD, ENABLE);
 145              		.loc 1 139 0
 146 004c 8020     		mov	r0, #128	@ tmp128,
ARM GAS  C:\Users\Patrick\AppData\Local\Temp\cc7hK0kh.s 			page 6


 147              	.LVL10:
 148 004e 4003     		lsl	r0, r0, #13	@, tmp128,
 149 0050 0121     		mov	r1, #1	@,
 150 0052 FFF7FEFF 		bl	RCC_AHBPeriphResetCmd	@
 151              	.LVL11:
 140:..\..\STM32F0-Discovery_FW_V1.0.0\Libraries\STM32F0xx_StdPeriph_Driver\src/stm32f0xx_gpio.c ****     RCC_AHBPeriphResetCmd(RCC_AHBPeriph_GPIOD, DISABLE);
 152              		.loc 1 140 0
 153 0056 8020     		mov	r0, #128	@ tmp129,
 154 0058 4003     		lsl	r0, r0, #13	@, tmp129,
 155 005a 09E0     		b	.L7	@
 156              	.LVL12:
 157              	.L6:
 141:..\..\STM32F0-Discovery_FW_V1.0.0\Libraries\STM32F0xx_StdPeriph_Driver\src/stm32f0xx_gpio.c ****   }
 142:..\..\STM32F0-Discovery_FW_V1.0.0\Libraries\STM32F0xx_StdPeriph_Driver\src/stm32f0xx_gpio.c ****   else
 143:..\..\STM32F0-Discovery_FW_V1.0.0\Libraries\STM32F0xx_StdPeriph_Driver\src/stm32f0xx_gpio.c ****   {
 144:..\..\STM32F0-Discovery_FW_V1.0.0\Libraries\STM32F0xx_StdPeriph_Driver\src/stm32f0xx_gpio.c ****     if(GPIOx == GPIOF)
 158              		.loc 1 144 0
 159 005c 094B     		ldr	r3, .L9+12	@ tmp123,
 160 005e 9842     		cmp	r0, r3	@ GPIOx, tmp123
 161 0060 09D1     		bne	.L1	@,
 145:..\..\STM32F0-Discovery_FW_V1.0.0\Libraries\STM32F0xx_StdPeriph_Driver\src/stm32f0xx_gpio.c ****     {
 146:..\..\STM32F0-Discovery_FW_V1.0.0\Libraries\STM32F0xx_StdPeriph_Driver\src/stm32f0xx_gpio.c ****       RCC_AHBPeriphResetCmd(RCC_AHBPeriph_GPIOF, ENABLE);
 162              		.loc 1 146 0
 163 0062 8020     		mov	r0, #128	@ tmp126,
 164              	.LVL13:
 165 0064 C003     		lsl	r0, r0, #15	@, tmp126,
 166 0066 0121     		mov	r1, #1	@,
 167 0068 FFF7FEFF 		bl	RCC_AHBPeriphResetCmd	@
 168              	.LVL14:
 147:..\..\STM32F0-Discovery_FW_V1.0.0\Libraries\STM32F0xx_StdPeriph_Driver\src/stm32f0xx_gpio.c ****       RCC_AHBPeriphResetCmd(RCC_AHBPeriph_GPIOF, DISABLE);
 169              		.loc 1 147 0
 170 006c 8020     		mov	r0, #128	@ tmp127,
 171 006e C003     		lsl	r0, r0, #15	@, tmp127,
 172              	.L7:
 173 0070 0021     		mov	r1, #0	@,
 174 0072 FFF7FEFF 		bl	RCC_AHBPeriphResetCmd	@
 175              	.LVL15:
 176              	.L1:
 148:..\..\STM32F0-Discovery_FW_V1.0.0\Libraries\STM32F0xx_StdPeriph_Driver\src/stm32f0xx_gpio.c ****     }
 149:..\..\STM32F0-Discovery_FW_V1.0.0\Libraries\STM32F0xx_StdPeriph_Driver\src/stm32f0xx_gpio.c ****   }
 150:..\..\STM32F0-Discovery_FW_V1.0.0\Libraries\STM32F0xx_StdPeriph_Driver\src/stm32f0xx_gpio.c **** }
 177              		.loc 1 150 0
 178              		@ sp needed	@
 179 0076 08BD     		pop	{r3, pc}
 180              	.L10:
 181              		.align	2
 182              	.L9:
 183 0078 00040048 		.word	1207960576
 184 007c 00080048 		.word	1207961600
 185 0080 000C0048 		.word	1207962624
 186 0084 00140048 		.word	1207964672
 187              		.cfi_endproc
 188              	.LFE32:
 189              		.size	GPIO_DeInit, .-GPIO_DeInit
 190              		.align	1
 191              		.global	GPIO_Init
 192              		.code	16
ARM GAS  C:\Users\Patrick\AppData\Local\Temp\cc7hK0kh.s 			page 7


 193              		.thumb_func
 194              		.type	GPIO_Init, %function
 195              	GPIO_Init:
 196              	.LFB33:
 151:..\..\STM32F0-Discovery_FW_V1.0.0\Libraries\STM32F0xx_StdPeriph_Driver\src/stm32f0xx_gpio.c **** 
 152:..\..\STM32F0-Discovery_FW_V1.0.0\Libraries\STM32F0xx_StdPeriph_Driver\src/stm32f0xx_gpio.c **** /**
 153:..\..\STM32F0-Discovery_FW_V1.0.0\Libraries\STM32F0xx_StdPeriph_Driver\src/stm32f0xx_gpio.c ****   * @brief  Initializes the GPIOx peripheral according to the specified 
 154:..\..\STM32F0-Discovery_FW_V1.0.0\Libraries\STM32F0xx_StdPeriph_Driver\src/stm32f0xx_gpio.c ****   *         parameters in the GPIO_InitStruct.
 155:..\..\STM32F0-Discovery_FW_V1.0.0\Libraries\STM32F0xx_StdPeriph_Driver\src/stm32f0xx_gpio.c ****   * @param  GPIOx: where x can be (A, B, C, D or F) to select the GPIO peripheral.
 156:..\..\STM32F0-Discovery_FW_V1.0.0\Libraries\STM32F0xx_StdPeriph_Driver\src/stm32f0xx_gpio.c ****   * @param  GPIO_InitStruct: pointer to a GPIO_InitTypeDef structure that contains
 157:..\..\STM32F0-Discovery_FW_V1.0.0\Libraries\STM32F0xx_StdPeriph_Driver\src/stm32f0xx_gpio.c ****   *         the configuration information for the specified GPIO peripheral.
 158:..\..\STM32F0-Discovery_FW_V1.0.0\Libraries\STM32F0xx_StdPeriph_Driver\src/stm32f0xx_gpio.c ****   * @note   The configured pins can be: GPIO_Pin_0 -> GPIO_Pin_15 for GPIOA, GPIOB and GPIOC,
 159:..\..\STM32F0-Discovery_FW_V1.0.0\Libraries\STM32F0xx_StdPeriph_Driver\src/stm32f0xx_gpio.c ****   *         GPIO_Pin_0 -> GPIO_Pin_2 for GPIOD, GPIO_Pin_0 -> GPIO_Pin_3 for GPIOF.
 160:..\..\STM32F0-Discovery_FW_V1.0.0\Libraries\STM32F0xx_StdPeriph_Driver\src/stm32f0xx_gpio.c ****   * @retval None
 161:..\..\STM32F0-Discovery_FW_V1.0.0\Libraries\STM32F0xx_StdPeriph_Driver\src/stm32f0xx_gpio.c ****   */
 162:..\..\STM32F0-Discovery_FW_V1.0.0\Libraries\STM32F0xx_StdPeriph_Driver\src/stm32f0xx_gpio.c **** void GPIO_Init(GPIO_TypeDef* GPIOx, GPIO_InitTypeDef* GPIO_InitStruct)
 163:..\..\STM32F0-Discovery_FW_V1.0.0\Libraries\STM32F0xx_StdPeriph_Driver\src/stm32f0xx_gpio.c **** {
 197              		.loc 1 163 0
 198              		.cfi_startproc
 199              	.LVL16:
 200 0088 F7B5     		push	{r0, r1, r2, r4, r5, r6, r7, lr}	@
 201              	.LCFI1:
 202              		.cfi_def_cfa_offset 32
 203              		.cfi_offset 0, -32
 204              		.cfi_offset 1, -28
 205              		.cfi_offset 2, -24
 206              		.cfi_offset 4, -20
 207              		.cfi_offset 5, -16
 208              		.cfi_offset 6, -12
 209              		.cfi_offset 7, -8
 210              		.cfi_offset 14, -4
 164:..\..\STM32F0-Discovery_FW_V1.0.0\Libraries\STM32F0xx_StdPeriph_Driver\src/stm32f0xx_gpio.c ****   uint32_t pinpos = 0x00, pos = 0x00 , currentpin = 0x00;
 165:..\..\STM32F0-Discovery_FW_V1.0.0\Libraries\STM32F0xx_StdPeriph_Driver\src/stm32f0xx_gpio.c **** 
 166:..\..\STM32F0-Discovery_FW_V1.0.0\Libraries\STM32F0xx_StdPeriph_Driver\src/stm32f0xx_gpio.c ****   /* Check the parameters */
 167:..\..\STM32F0-Discovery_FW_V1.0.0\Libraries\STM32F0xx_StdPeriph_Driver\src/stm32f0xx_gpio.c ****   assert_param(IS_GPIO_ALL_PERIPH(GPIOx));
 168:..\..\STM32F0-Discovery_FW_V1.0.0\Libraries\STM32F0xx_StdPeriph_Driver\src/stm32f0xx_gpio.c ****   assert_param(IS_GPIO_PIN(GPIO_InitStruct->GPIO_Pin));
 169:..\..\STM32F0-Discovery_FW_V1.0.0\Libraries\STM32F0xx_StdPeriph_Driver\src/stm32f0xx_gpio.c ****   assert_param(IS_GPIO_MODE(GPIO_InitStruct->GPIO_Mode));
 170:..\..\STM32F0-Discovery_FW_V1.0.0\Libraries\STM32F0xx_StdPeriph_Driver\src/stm32f0xx_gpio.c ****   assert_param(IS_GPIO_PUPD(GPIO_InitStruct->GPIO_PuPd));
 171:..\..\STM32F0-Discovery_FW_V1.0.0\Libraries\STM32F0xx_StdPeriph_Driver\src/stm32f0xx_gpio.c **** 
 172:..\..\STM32F0-Discovery_FW_V1.0.0\Libraries\STM32F0xx_StdPeriph_Driver\src/stm32f0xx_gpio.c ****   /*-------------------------- Configure the port pins -----------------------*/
 173:..\..\STM32F0-Discovery_FW_V1.0.0\Libraries\STM32F0xx_StdPeriph_Driver\src/stm32f0xx_gpio.c ****   /*-- GPIO Mode Configuration --*/
 174:..\..\STM32F0-Discovery_FW_V1.0.0\Libraries\STM32F0xx_StdPeriph_Driver\src/stm32f0xx_gpio.c ****   for (pinpos = 0x00; pinpos < 0x10; pinpos++)
 175:..\..\STM32F0-Discovery_FW_V1.0.0\Libraries\STM32F0xx_StdPeriph_Driver\src/stm32f0xx_gpio.c ****   {
 176:..\..\STM32F0-Discovery_FW_V1.0.0\Libraries\STM32F0xx_StdPeriph_Driver\src/stm32f0xx_gpio.c ****     pos = ((uint32_t)0x01) << pinpos;
 177:..\..\STM32F0-Discovery_FW_V1.0.0\Libraries\STM32F0xx_StdPeriph_Driver\src/stm32f0xx_gpio.c **** 
 178:..\..\STM32F0-Discovery_FW_V1.0.0\Libraries\STM32F0xx_StdPeriph_Driver\src/stm32f0xx_gpio.c ****     /* Get the port pins position */
 179:..\..\STM32F0-Discovery_FW_V1.0.0\Libraries\STM32F0xx_StdPeriph_Driver\src/stm32f0xx_gpio.c ****     currentpin = (GPIO_InitStruct->GPIO_Pin) & pos;
 211              		.loc 1 179 0
 212 008a 0B68     		ldr	r3, [r1]	@, GPIO_InitStruct_10(D)->GPIO_Pin
 213 008c 0193     		str	r3, [sp, #4]	@, %sfp
 174:..\..\STM32F0-Discovery_FW_V1.0.0\Libraries\STM32F0xx_StdPeriph_Driver\src/stm32f0xx_gpio.c ****   for (pinpos = 0x00; pinpos < 0x10; pinpos++)
 214              		.loc 1 174 0
 215 008e 0023     		mov	r3, #0	@ pinpos,
 216              	.LVL17:
 217              	.L15:
 176:..\..\STM32F0-Discovery_FW_V1.0.0\Libraries\STM32F0xx_StdPeriph_Driver\src/stm32f0xx_gpio.c ****     pos = ((uint32_t)0x01) << pinpos;
 218              		.loc 1 176 0
ARM GAS  C:\Users\Patrick\AppData\Local\Temp\cc7hK0kh.s 			page 8


 219 0090 0124     		mov	r4, #1	@ tmp157,
 220              		.loc 1 179 0
 221 0092 019A     		ldr	r2, [sp, #4]	@ currentpin, %sfp
 176:..\..\STM32F0-Discovery_FW_V1.0.0\Libraries\STM32F0xx_StdPeriph_Driver\src/stm32f0xx_gpio.c ****     pos = ((uint32_t)0x01) << pinpos;
 222              		.loc 1 176 0
 223 0094 9C40     		lsl	r4, r4, r3	@ pos, tmp157, pinpos
 224              	.LVL18:
 225              		.loc 1 179 0
 226 0096 2240     		and	r2, r4	@ currentpin, pos
 227              	.LVL19:
 180:..\..\STM32F0-Discovery_FW_V1.0.0\Libraries\STM32F0xx_StdPeriph_Driver\src/stm32f0xx_gpio.c **** 
 181:..\..\STM32F0-Discovery_FW_V1.0.0\Libraries\STM32F0xx_StdPeriph_Driver\src/stm32f0xx_gpio.c ****     if (currentpin == pos)
 228              		.loc 1 181 0
 229 0098 A242     		cmp	r2, r4	@ currentpin, pos
 230 009a 2ED1     		bne	.L12	@,
 182:..\..\STM32F0-Discovery_FW_V1.0.0\Libraries\STM32F0xx_StdPeriph_Driver\src/stm32f0xx_gpio.c ****     {
 183:..\..\STM32F0-Discovery_FW_V1.0.0\Libraries\STM32F0xx_StdPeriph_Driver\src/stm32f0xx_gpio.c ****       if ((GPIO_InitStruct->GPIO_Mode == GPIO_Mode_OUT) || (GPIO_InitStruct->GPIO_Mode == GPIO_Mode
 231              		.loc 1 183 0
 232 009c 0D79     		ldrb	r5, [r1, #4]	@ D.4970, *GPIO_InitStruct_10(D)
 233 009e 6C1E     		sub	r4, r5, #1	@ tmp158, D.4970,
 234              	.LVL20:
 235 00a0 E4B2     		uxtb	r4, r4	@ tmp159, tmp158
 236 00a2 012C     		cmp	r4, #1	@ tmp159,
 237 00a4 15D8     		bhi	.L13	@,
 184:..\..\STM32F0-Discovery_FW_V1.0.0\Libraries\STM32F0xx_StdPeriph_Driver\src/stm32f0xx_gpio.c ****       {
 185:..\..\STM32F0-Discovery_FW_V1.0.0\Libraries\STM32F0xx_StdPeriph_Driver\src/stm32f0xx_gpio.c ****         /* Check Speed mode parameters */
 186:..\..\STM32F0-Discovery_FW_V1.0.0\Libraries\STM32F0xx_StdPeriph_Driver\src/stm32f0xx_gpio.c ****         assert_param(IS_GPIO_SPEED(GPIO_InitStruct->GPIO_Speed));
 187:..\..\STM32F0-Discovery_FW_V1.0.0\Libraries\STM32F0xx_StdPeriph_Driver\src/stm32f0xx_gpio.c **** 
 188:..\..\STM32F0-Discovery_FW_V1.0.0\Libraries\STM32F0xx_StdPeriph_Driver\src/stm32f0xx_gpio.c ****         /* Speed mode configuration */
 189:..\..\STM32F0-Discovery_FW_V1.0.0\Libraries\STM32F0xx_StdPeriph_Driver\src/stm32f0xx_gpio.c ****         GPIOx->OSPEEDR &= ~(GPIO_OSPEEDER_OSPEEDR0 << (pinpos * 2));
 238              		.loc 1 189 0
 239 00a6 8768     		ldr	r7, [r0, #8]	@ D.4969, GPIOx_15(D)->OSPEEDR
 240 00a8 5C00     		lsl	r4, r3, #1	@ D.4974, pinpos,
 241 00aa 0326     		mov	r6, #3	@,
 242 00ac A640     		lsl	r6, r6, r4	@,, D.4974
 243 00ae B743     		bic	r7, r6	@ D.4969,
 190:..\..\STM32F0-Discovery_FW_V1.0.0\Libraries\STM32F0xx_StdPeriph_Driver\src/stm32f0xx_gpio.c ****         GPIOx->OSPEEDR |= ((uint32_t)(GPIO_InitStruct->GPIO_Speed) << (pinpos * 2));
 244              		.loc 1 190 0
 245 00b0 4E79     		ldrb	r6, [r1, #5]	@, *GPIO_InitStruct_10(D)
 189:..\..\STM32F0-Discovery_FW_V1.0.0\Libraries\STM32F0xx_StdPeriph_Driver\src/stm32f0xx_gpio.c ****         GPIOx->OSPEEDR &= ~(GPIO_OSPEEDER_OSPEEDR0 << (pinpos * 2));
 246              		.loc 1 189 0
 247 00b2 8760     		str	r7, [r0, #8]	@ D.4969, GPIOx_15(D)->OSPEEDR
 248              		.loc 1 190 0
 249 00b4 8768     		ldr	r7, [r0, #8]	@ D.4969, GPIOx_15(D)->OSPEEDR
 250 00b6 A640     		lsl	r6, r6, r4	@,, D.4974
 251 00b8 341C     		mov	r4, r6	@ D.4969,
 252 00ba 3C43     		orr	r4, r7	@ D.4969, D.4969
 253 00bc 8460     		str	r4, [r0, #8]	@ D.4969, GPIOx_15(D)->OSPEEDR
 191:..\..\STM32F0-Discovery_FW_V1.0.0\Libraries\STM32F0xx_StdPeriph_Driver\src/stm32f0xx_gpio.c **** 
 192:..\..\STM32F0-Discovery_FW_V1.0.0\Libraries\STM32F0xx_StdPeriph_Driver\src/stm32f0xx_gpio.c ****         /* Check Output mode parameters */
 193:..\..\STM32F0-Discovery_FW_V1.0.0\Libraries\STM32F0xx_StdPeriph_Driver\src/stm32f0xx_gpio.c ****         assert_param(IS_GPIO_OTYPE(GPIO_InitStruct->GPIO_OType));
 194:..\..\STM32F0-Discovery_FW_V1.0.0\Libraries\STM32F0xx_StdPeriph_Driver\src/stm32f0xx_gpio.c **** 
 195:..\..\STM32F0-Discovery_FW_V1.0.0\Libraries\STM32F0xx_StdPeriph_Driver\src/stm32f0xx_gpio.c ****         /* Output mode configuration */
 196:..\..\STM32F0-Discovery_FW_V1.0.0\Libraries\STM32F0xx_StdPeriph_Driver\src/stm32f0xx_gpio.c ****         GPIOx->OTYPER &= ~((GPIO_OTYPER_OT_0) << ((uint16_t)pinpos));
 254              		.loc 1 196 0
 255 00be 4468     		ldr	r4, [r0, #4]	@ tmp165,
 256 00c0 A4B2     		uxth	r4, r4	@ D.4973, tmp165
ARM GAS  C:\Users\Patrick\AppData\Local\Temp\cc7hK0kh.s 			page 9


 257 00c2 9443     		bic	r4, r2	@ D.4973, currentpin
 258 00c4 8480     		strh	r4, [r0, #4]	@ D.4973, GPIOx_15(D)->OTYPER
 197:..\..\STM32F0-Discovery_FW_V1.0.0\Libraries\STM32F0xx_StdPeriph_Driver\src/stm32f0xx_gpio.c ****         GPIOx->OTYPER |= (uint16_t)(((uint16_t)GPIO_InitStruct->GPIO_OType) << ((uint16_t)pinpos));
 259              		.loc 1 197 0
 260 00c6 8A79     		ldrb	r2, [r1, #6]	@ D.4974, *GPIO_InitStruct_10(D)
 261              	.LVL21:
 262 00c8 4468     		ldr	r4, [r0, #4]	@ tmp172,
 263 00ca 9A40     		lsl	r2, r2, r3	@ D.4974, D.4974, pinpos
 264 00cc 2243     		orr	r2, r4	@ tmp176, tmp172
 265 00ce 92B2     		uxth	r2, r2	@ D.4973, tmp176
 266 00d0 8280     		strh	r2, [r0, #4]	@ D.4973, GPIOx_15(D)->OTYPER
 267              	.L13:
 268 00d2 5A00     		lsl	r2, r3, #1	@ D.4974, pinpos,
 198:..\..\STM32F0-Discovery_FW_V1.0.0\Libraries\STM32F0xx_StdPeriph_Driver\src/stm32f0xx_gpio.c ****       }
 199:..\..\STM32F0-Discovery_FW_V1.0.0\Libraries\STM32F0xx_StdPeriph_Driver\src/stm32f0xx_gpio.c **** 
 200:..\..\STM32F0-Discovery_FW_V1.0.0\Libraries\STM32F0xx_StdPeriph_Driver\src/stm32f0xx_gpio.c ****       GPIOx->MODER  &= ~(GPIO_MODER_MODER0 << (pinpos * 2));
 269              		.loc 1 200 0
 270 00d4 0324     		mov	r4, #3	@ tmp179,
 271 00d6 0768     		ldr	r7, [r0]	@ D.4969, GPIOx_15(D)->MODER
 272 00d8 9440     		lsl	r4, r4, r2	@ D.4969, tmp179, D.4974
 273 00da E443     		mvn	r4, r4	@ D.4969, D.4969
 274 00dc 2740     		and	r7, r4	@ D.4969, D.4969
 275 00de 0760     		str	r7, [r0]	@ D.4969, GPIOx_15(D)->MODER
 201:..\..\STM32F0-Discovery_FW_V1.0.0\Libraries\STM32F0xx_StdPeriph_Driver\src/stm32f0xx_gpio.c **** 
 202:..\..\STM32F0-Discovery_FW_V1.0.0\Libraries\STM32F0xx_StdPeriph_Driver\src/stm32f0xx_gpio.c ****       GPIOx->MODER |= (((uint32_t)GPIO_InitStruct->GPIO_Mode) << (pinpos * 2));
 276              		.loc 1 202 0
 277 00e0 0768     		ldr	r7, [r0]	@ D.4969, GPIOx_15(D)->MODER
 278 00e2 9540     		lsl	r5, r5, r2	@ D.4969, D.4970, D.4974
 279 00e4 3D43     		orr	r5, r7	@ D.4969, D.4969
 280 00e6 0560     		str	r5, [r0]	@ D.4969, GPIOx_15(D)->MODER
 203:..\..\STM32F0-Discovery_FW_V1.0.0\Libraries\STM32F0xx_StdPeriph_Driver\src/stm32f0xx_gpio.c **** 
 204:..\..\STM32F0-Discovery_FW_V1.0.0\Libraries\STM32F0xx_StdPeriph_Driver\src/stm32f0xx_gpio.c ****       /* Pull-up Pull down resistor configuration */
 205:..\..\STM32F0-Discovery_FW_V1.0.0\Libraries\STM32F0xx_StdPeriph_Driver\src/stm32f0xx_gpio.c ****       GPIOx->PUPDR &= ~(GPIO_PUPDR_PUPDR0 << ((uint16_t)pinpos * 2));
 281              		.loc 1 205 0
 282 00e8 C568     		ldr	r5, [r0, #12]	@ D.4969, GPIOx_15(D)->PUPDR
 283 00ea 2C40     		and	r4, r5	@ D.4969, D.4969
 206:..\..\STM32F0-Discovery_FW_V1.0.0\Libraries\STM32F0xx_StdPeriph_Driver\src/stm32f0xx_gpio.c ****       GPIOx->PUPDR |= (((uint32_t)GPIO_InitStruct->GPIO_PuPd) << (pinpos * 2));
 284              		.loc 1 206 0
 285 00ec CD79     		ldrb	r5, [r1, #7]	@ D.4969, *GPIO_InitStruct_10(D)
 205:..\..\STM32F0-Discovery_FW_V1.0.0\Libraries\STM32F0xx_StdPeriph_Driver\src/stm32f0xx_gpio.c ****       GPIOx->PUPDR &= ~(GPIO_PUPDR_PUPDR0 << ((uint16_t)pinpos * 2));
 286              		.loc 1 205 0
 287 00ee C460     		str	r4, [r0, #12]	@ D.4969, GPIOx_15(D)->PUPDR
 288              		.loc 1 206 0
 289 00f0 C468     		ldr	r4, [r0, #12]	@ D.4969, GPIOx_15(D)->PUPDR
 290 00f2 9540     		lsl	r5, r5, r2	@ D.4969, D.4969, D.4974
 291 00f4 2A1C     		mov	r2, r5	@ D.4969, D.4969
 292 00f6 2243     		orr	r2, r4	@ D.4969, D.4969
 293 00f8 C260     		str	r2, [r0, #12]	@ D.4969, GPIOx_15(D)->PUPDR
 294              	.L12:
 174:..\..\STM32F0-Discovery_FW_V1.0.0\Libraries\STM32F0xx_StdPeriph_Driver\src/stm32f0xx_gpio.c ****   for (pinpos = 0x00; pinpos < 0x10; pinpos++)
 295              		.loc 1 174 0
 296 00fa 0133     		add	r3, r3, #1	@ pinpos,
 297              	.LVL22:
 298 00fc 102B     		cmp	r3, #16	@ pinpos,
 299 00fe C7D1     		bne	.L15	@,
 207:..\..\STM32F0-Discovery_FW_V1.0.0\Libraries\STM32F0xx_StdPeriph_Driver\src/stm32f0xx_gpio.c ****     }
 208:..\..\STM32F0-Discovery_FW_V1.0.0\Libraries\STM32F0xx_StdPeriph_Driver\src/stm32f0xx_gpio.c ****   }
ARM GAS  C:\Users\Patrick\AppData\Local\Temp\cc7hK0kh.s 			page 10


 209:..\..\STM32F0-Discovery_FW_V1.0.0\Libraries\STM32F0xx_StdPeriph_Driver\src/stm32f0xx_gpio.c **** }
 300              		.loc 1 209 0
 301              		@ sp needed	@
 302 0100 F7BD     		pop	{r0, r1, r2, r4, r5, r6, r7, pc}
 303              		.cfi_endproc
 304              	.LFE33:
 305              		.size	GPIO_Init, .-GPIO_Init
 306              		.align	1
 307              		.global	GPIO_StructInit
 308              		.code	16
 309              		.thumb_func
 310              		.type	GPIO_StructInit, %function
 311              	GPIO_StructInit:
 312              	.LFB34:
 210:..\..\STM32F0-Discovery_FW_V1.0.0\Libraries\STM32F0xx_StdPeriph_Driver\src/stm32f0xx_gpio.c **** 
 211:..\..\STM32F0-Discovery_FW_V1.0.0\Libraries\STM32F0xx_StdPeriph_Driver\src/stm32f0xx_gpio.c **** /**
 212:..\..\STM32F0-Discovery_FW_V1.0.0\Libraries\STM32F0xx_StdPeriph_Driver\src/stm32f0xx_gpio.c ****   * @brief  Fills each GPIO_InitStruct member with its default value.
 213:..\..\STM32F0-Discovery_FW_V1.0.0\Libraries\STM32F0xx_StdPeriph_Driver\src/stm32f0xx_gpio.c ****   * @param  GPIO_InitStruct: pointer to a GPIO_InitTypeDef structure which will 
 214:..\..\STM32F0-Discovery_FW_V1.0.0\Libraries\STM32F0xx_StdPeriph_Driver\src/stm32f0xx_gpio.c ****   *         be initialized.
 215:..\..\STM32F0-Discovery_FW_V1.0.0\Libraries\STM32F0xx_StdPeriph_Driver\src/stm32f0xx_gpio.c ****   * @retval None
 216:..\..\STM32F0-Discovery_FW_V1.0.0\Libraries\STM32F0xx_StdPeriph_Driver\src/stm32f0xx_gpio.c ****   */
 217:..\..\STM32F0-Discovery_FW_V1.0.0\Libraries\STM32F0xx_StdPeriph_Driver\src/stm32f0xx_gpio.c **** void GPIO_StructInit(GPIO_InitTypeDef* GPIO_InitStruct)
 218:..\..\STM32F0-Discovery_FW_V1.0.0\Libraries\STM32F0xx_StdPeriph_Driver\src/stm32f0xx_gpio.c **** {
 313              		.loc 1 218 0
 314              		.cfi_startproc
 315              	.LVL23:
 219:..\..\STM32F0-Discovery_FW_V1.0.0\Libraries\STM32F0xx_StdPeriph_Driver\src/stm32f0xx_gpio.c ****   /* Reset GPIO init structure parameters values */
 220:..\..\STM32F0-Discovery_FW_V1.0.0\Libraries\STM32F0xx_StdPeriph_Driver\src/stm32f0xx_gpio.c ****   GPIO_InitStruct->GPIO_Pin  = GPIO_Pin_All;
 316              		.loc 1 220 0
 317 0102 044B     		ldr	r3, .L17	@ tmp111,
 221:..\..\STM32F0-Discovery_FW_V1.0.0\Libraries\STM32F0xx_StdPeriph_Driver\src/stm32f0xx_gpio.c ****   GPIO_InitStruct->GPIO_Mode = GPIO_Mode_IN;
 222:..\..\STM32F0-Discovery_FW_V1.0.0\Libraries\STM32F0xx_StdPeriph_Driver\src/stm32f0xx_gpio.c ****   GPIO_InitStruct->GPIO_Speed = GPIO_Speed_Level_2;
 318              		.loc 1 222 0
 319 0104 0222     		mov	r2, #2	@ tmp114,
 220:..\..\STM32F0-Discovery_FW_V1.0.0\Libraries\STM32F0xx_StdPeriph_Driver\src/stm32f0xx_gpio.c ****   GPIO_InitStruct->GPIO_Pin  = GPIO_Pin_All;
 320              		.loc 1 220 0
 321 0106 0360     		str	r3, [r0]	@ tmp111, GPIO_InitStruct_2(D)->GPIO_Pin
 221:..\..\STM32F0-Discovery_FW_V1.0.0\Libraries\STM32F0xx_StdPeriph_Driver\src/stm32f0xx_gpio.c ****   GPIO_InitStruct->GPIO_Mode = GPIO_Mode_IN;
 322              		.loc 1 221 0
 323 0108 0023     		mov	r3, #0	@ tmp112,
 324 010a 0371     		strb	r3, [r0, #4]	@ tmp112, GPIO_InitStruct_2(D)->GPIO_Mode
 325              		.loc 1 222 0
 326 010c 4271     		strb	r2, [r0, #5]	@ tmp114, GPIO_InitStruct_2(D)->GPIO_Speed
 223:..\..\STM32F0-Discovery_FW_V1.0.0\Libraries\STM32F0xx_StdPeriph_Driver\src/stm32f0xx_gpio.c ****   GPIO_InitStruct->GPIO_OType = GPIO_OType_PP;
 327              		.loc 1 223 0
 328 010e 8371     		strb	r3, [r0, #6]	@ tmp112, GPIO_InitStruct_2(D)->GPIO_OType
 224:..\..\STM32F0-Discovery_FW_V1.0.0\Libraries\STM32F0xx_StdPeriph_Driver\src/stm32f0xx_gpio.c ****   GPIO_InitStruct->GPIO_PuPd = GPIO_PuPd_NOPULL;
 329              		.loc 1 224 0
 330 0110 C371     		strb	r3, [r0, #7]	@ tmp112, GPIO_InitStruct_2(D)->GPIO_PuPd
 225:..\..\STM32F0-Discovery_FW_V1.0.0\Libraries\STM32F0xx_StdPeriph_Driver\src/stm32f0xx_gpio.c **** }
 331              		.loc 1 225 0
 332              		@ sp needed	@
 333 0112 7047     		bx	lr
 334              	.L18:
 335              		.align	2
 336              	.L17:
 337 0114 FFFF0000 		.word	65535
ARM GAS  C:\Users\Patrick\AppData\Local\Temp\cc7hK0kh.s 			page 11


 338              		.cfi_endproc
 339              	.LFE34:
 340              		.size	GPIO_StructInit, .-GPIO_StructInit
 341              		.align	1
 342              		.global	GPIO_PinLockConfig
 343              		.code	16
 344              		.thumb_func
 345              		.type	GPIO_PinLockConfig, %function
 346              	GPIO_PinLockConfig:
 347              	.LFB35:
 226:..\..\STM32F0-Discovery_FW_V1.0.0\Libraries\STM32F0xx_StdPeriph_Driver\src/stm32f0xx_gpio.c **** 
 227:..\..\STM32F0-Discovery_FW_V1.0.0\Libraries\STM32F0xx_StdPeriph_Driver\src/stm32f0xx_gpio.c **** /**
 228:..\..\STM32F0-Discovery_FW_V1.0.0\Libraries\STM32F0xx_StdPeriph_Driver\src/stm32f0xx_gpio.c ****   * @brief  Locks GPIO Pins configuration registers.
 229:..\..\STM32F0-Discovery_FW_V1.0.0\Libraries\STM32F0xx_StdPeriph_Driver\src/stm32f0xx_gpio.c ****   *         The locked registers are GPIOx_MODER, GPIOx_OTYPER, GPIOx_OSPEEDR,
 230:..\..\STM32F0-Discovery_FW_V1.0.0\Libraries\STM32F0xx_StdPeriph_Driver\src/stm32f0xx_gpio.c ****   *         GPIOx_PUPDR, GPIOx_AFRL and GPIOx_AFRH.
 231:..\..\STM32F0-Discovery_FW_V1.0.0\Libraries\STM32F0xx_StdPeriph_Driver\src/stm32f0xx_gpio.c ****   * @note   The configuration of the locked GPIO pins can no longer be modified
 232:..\..\STM32F0-Discovery_FW_V1.0.0\Libraries\STM32F0xx_StdPeriph_Driver\src/stm32f0xx_gpio.c ****   *         until the next reset.
 233:..\..\STM32F0-Discovery_FW_V1.0.0\Libraries\STM32F0xx_StdPeriph_Driver\src/stm32f0xx_gpio.c ****   * @param  GPIOx: where x can be (A or B) to select the GPIO peripheral.
 234:..\..\STM32F0-Discovery_FW_V1.0.0\Libraries\STM32F0xx_StdPeriph_Driver\src/stm32f0xx_gpio.c ****   * @param  GPIO_Pin: specifies the port bit to be written.
 235:..\..\STM32F0-Discovery_FW_V1.0.0\Libraries\STM32F0xx_StdPeriph_Driver\src/stm32f0xx_gpio.c ****   *   This parameter can be any combination of GPIO_Pin_x where x can be (0..15).
 236:..\..\STM32F0-Discovery_FW_V1.0.0\Libraries\STM32F0xx_StdPeriph_Driver\src/stm32f0xx_gpio.c ****   * @retval None
 237:..\..\STM32F0-Discovery_FW_V1.0.0\Libraries\STM32F0xx_StdPeriph_Driver\src/stm32f0xx_gpio.c ****   */
 238:..\..\STM32F0-Discovery_FW_V1.0.0\Libraries\STM32F0xx_StdPeriph_Driver\src/stm32f0xx_gpio.c **** void GPIO_PinLockConfig(GPIO_TypeDef* GPIOx, uint16_t GPIO_Pin)
 239:..\..\STM32F0-Discovery_FW_V1.0.0\Libraries\STM32F0xx_StdPeriph_Driver\src/stm32f0xx_gpio.c **** {
 348              		.loc 1 239 0
 349              		.cfi_startproc
 350              	.LVL24:
 240:..\..\STM32F0-Discovery_FW_V1.0.0\Libraries\STM32F0xx_StdPeriph_Driver\src/stm32f0xx_gpio.c ****   __IO uint32_t tmp = 0x00010000;
 351              		.loc 1 240 0
 352 0118 8023     		mov	r3, #128	@ tmp120,
 239:..\..\STM32F0-Discovery_FW_V1.0.0\Libraries\STM32F0xx_StdPeriph_Driver\src/stm32f0xx_gpio.c **** {
 353              		.loc 1 239 0
 354 011a 82B0     		sub	sp, sp, #8	@,,
 355              	.LCFI2:
 356              		.cfi_def_cfa_offset 8
 357              		.loc 1 240 0
 358 011c 5B02     		lsl	r3, r3, #9	@ tmp119, tmp120,
 359 011e 0193     		str	r3, [sp, #4]	@ tmp119, tmp
 241:..\..\STM32F0-Discovery_FW_V1.0.0\Libraries\STM32F0xx_StdPeriph_Driver\src/stm32f0xx_gpio.c **** 
 242:..\..\STM32F0-Discovery_FW_V1.0.0\Libraries\STM32F0xx_StdPeriph_Driver\src/stm32f0xx_gpio.c ****   /* Check the parameters */
 243:..\..\STM32F0-Discovery_FW_V1.0.0\Libraries\STM32F0xx_StdPeriph_Driver\src/stm32f0xx_gpio.c ****   assert_param(IS_GPIO_LIST_PERIPH(GPIOx));
 244:..\..\STM32F0-Discovery_FW_V1.0.0\Libraries\STM32F0xx_StdPeriph_Driver\src/stm32f0xx_gpio.c ****   assert_param(IS_GPIO_PIN(GPIO_Pin));
 245:..\..\STM32F0-Discovery_FW_V1.0.0\Libraries\STM32F0xx_StdPeriph_Driver\src/stm32f0xx_gpio.c **** 
 246:..\..\STM32F0-Discovery_FW_V1.0.0\Libraries\STM32F0xx_StdPeriph_Driver\src/stm32f0xx_gpio.c ****   tmp |= GPIO_Pin;
 360              		.loc 1 246 0
 361 0120 019B     		ldr	r3, [sp, #4]	@ tmp.1, tmp
 362 0122 0B43     		orr	r3, r1	@ tmp.2, GPIO_Pin
 363 0124 0193     		str	r3, [sp, #4]	@ tmp.2, tmp
 247:..\..\STM32F0-Discovery_FW_V1.0.0\Libraries\STM32F0xx_StdPeriph_Driver\src/stm32f0xx_gpio.c ****   /* Set LCKK bit */
 248:..\..\STM32F0-Discovery_FW_V1.0.0\Libraries\STM32F0xx_StdPeriph_Driver\src/stm32f0xx_gpio.c ****   GPIOx->LCKR = tmp;
 364              		.loc 1 248 0
 365 0126 019B     		ldr	r3, [sp, #4]	@ tmp.3, tmp
 366 0128 C361     		str	r3, [r0, #28]	@ tmp.3, GPIOx_9(D)->LCKR
 249:..\..\STM32F0-Discovery_FW_V1.0.0\Libraries\STM32F0xx_StdPeriph_Driver\src/stm32f0xx_gpio.c ****   /* Reset LCKK bit */
 250:..\..\STM32F0-Discovery_FW_V1.0.0\Libraries\STM32F0xx_StdPeriph_Driver\src/stm32f0xx_gpio.c ****   GPIOx->LCKR =  GPIO_Pin;
 367              		.loc 1 250 0
 368 012a C161     		str	r1, [r0, #28]	@ GPIO_Pin, GPIOx_9(D)->LCKR
ARM GAS  C:\Users\Patrick\AppData\Local\Temp\cc7hK0kh.s 			page 12


 251:..\..\STM32F0-Discovery_FW_V1.0.0\Libraries\STM32F0xx_StdPeriph_Driver\src/stm32f0xx_gpio.c ****   /* Set LCKK bit */
 252:..\..\STM32F0-Discovery_FW_V1.0.0\Libraries\STM32F0xx_StdPeriph_Driver\src/stm32f0xx_gpio.c ****   GPIOx->LCKR = tmp;
 369              		.loc 1 252 0
 370 012c 019B     		ldr	r3, [sp, #4]	@ tmp.4, tmp
 371 012e C361     		str	r3, [r0, #28]	@ tmp.4, GPIOx_9(D)->LCKR
 253:..\..\STM32F0-Discovery_FW_V1.0.0\Libraries\STM32F0xx_StdPeriph_Driver\src/stm32f0xx_gpio.c ****   /* Read LCKK bit */
 254:..\..\STM32F0-Discovery_FW_V1.0.0\Libraries\STM32F0xx_StdPeriph_Driver\src/stm32f0xx_gpio.c ****   tmp = GPIOx->LCKR;
 372              		.loc 1 254 0
 373 0130 C369     		ldr	r3, [r0, #28]	@ tmp.5, GPIOx_9(D)->LCKR
 374 0132 0193     		str	r3, [sp, #4]	@ tmp.5, tmp
 255:..\..\STM32F0-Discovery_FW_V1.0.0\Libraries\STM32F0xx_StdPeriph_Driver\src/stm32f0xx_gpio.c ****   /* Read LCKK bit */
 256:..\..\STM32F0-Discovery_FW_V1.0.0\Libraries\STM32F0xx_StdPeriph_Driver\src/stm32f0xx_gpio.c ****   tmp = GPIOx->LCKR;
 375              		.loc 1 256 0
 376 0134 C369     		ldr	r3, [r0, #28]	@ tmp.6, GPIOx_9(D)->LCKR
 377 0136 0193     		str	r3, [sp, #4]	@ tmp.6, tmp
 257:..\..\STM32F0-Discovery_FW_V1.0.0\Libraries\STM32F0xx_StdPeriph_Driver\src/stm32f0xx_gpio.c **** }
 378              		.loc 1 257 0
 379 0138 02B0     		add	sp, sp, #8	@,,
 380              		@ sp needed	@
 381 013a 7047     		bx	lr
 382              		.cfi_endproc
 383              	.LFE35:
 384              		.size	GPIO_PinLockConfig, .-GPIO_PinLockConfig
 385              		.align	1
 386              		.global	GPIO_ReadInputDataBit
 387              		.code	16
 388              		.thumb_func
 389              		.type	GPIO_ReadInputDataBit, %function
 390              	GPIO_ReadInputDataBit:
 391              	.LFB36:
 258:..\..\STM32F0-Discovery_FW_V1.0.0\Libraries\STM32F0xx_StdPeriph_Driver\src/stm32f0xx_gpio.c **** 
 259:..\..\STM32F0-Discovery_FW_V1.0.0\Libraries\STM32F0xx_StdPeriph_Driver\src/stm32f0xx_gpio.c **** /**
 260:..\..\STM32F0-Discovery_FW_V1.0.0\Libraries\STM32F0xx_StdPeriph_Driver\src/stm32f0xx_gpio.c ****   * @}
 261:..\..\STM32F0-Discovery_FW_V1.0.0\Libraries\STM32F0xx_StdPeriph_Driver\src/stm32f0xx_gpio.c ****   */
 262:..\..\STM32F0-Discovery_FW_V1.0.0\Libraries\STM32F0xx_StdPeriph_Driver\src/stm32f0xx_gpio.c **** 
 263:..\..\STM32F0-Discovery_FW_V1.0.0\Libraries\STM32F0xx_StdPeriph_Driver\src/stm32f0xx_gpio.c **** /** @defgroup GPIO_Group2 GPIO Read and Write
 264:..\..\STM32F0-Discovery_FW_V1.0.0\Libraries\STM32F0xx_StdPeriph_Driver\src/stm32f0xx_gpio.c ****  *  @brief   GPIO Read and Write
 265:..\..\STM32F0-Discovery_FW_V1.0.0\Libraries\STM32F0xx_StdPeriph_Driver\src/stm32f0xx_gpio.c ****  *
 266:..\..\STM32F0-Discovery_FW_V1.0.0\Libraries\STM32F0xx_StdPeriph_Driver\src/stm32f0xx_gpio.c **** @verbatim   
 267:..\..\STM32F0-Discovery_FW_V1.0.0\Libraries\STM32F0xx_StdPeriph_Driver\src/stm32f0xx_gpio.c ****  ===============================================================================
 268:..\..\STM32F0-Discovery_FW_V1.0.0\Libraries\STM32F0xx_StdPeriph_Driver\src/stm32f0xx_gpio.c ****                       ##### GPIO Read and Write #####
 269:..\..\STM32F0-Discovery_FW_V1.0.0\Libraries\STM32F0xx_StdPeriph_Driver\src/stm32f0xx_gpio.c ****  ===============================================================================  
 270:..\..\STM32F0-Discovery_FW_V1.0.0\Libraries\STM32F0xx_StdPeriph_Driver\src/stm32f0xx_gpio.c **** 
 271:..\..\STM32F0-Discovery_FW_V1.0.0\Libraries\STM32F0xx_StdPeriph_Driver\src/stm32f0xx_gpio.c **** @endverbatim
 272:..\..\STM32F0-Discovery_FW_V1.0.0\Libraries\STM32F0xx_StdPeriph_Driver\src/stm32f0xx_gpio.c ****   * @{
 273:..\..\STM32F0-Discovery_FW_V1.0.0\Libraries\STM32F0xx_StdPeriph_Driver\src/stm32f0xx_gpio.c ****   */
 274:..\..\STM32F0-Discovery_FW_V1.0.0\Libraries\STM32F0xx_StdPeriph_Driver\src/stm32f0xx_gpio.c **** 
 275:..\..\STM32F0-Discovery_FW_V1.0.0\Libraries\STM32F0xx_StdPeriph_Driver\src/stm32f0xx_gpio.c **** /**
 276:..\..\STM32F0-Discovery_FW_V1.0.0\Libraries\STM32F0xx_StdPeriph_Driver\src/stm32f0xx_gpio.c ****   * @brief  Reads the specified input port pin.
 277:..\..\STM32F0-Discovery_FW_V1.0.0\Libraries\STM32F0xx_StdPeriph_Driver\src/stm32f0xx_gpio.c ****   * @param  GPIOx: where x can be (A, B, C, D or F) to select the GPIO peripheral.
 278:..\..\STM32F0-Discovery_FW_V1.0.0\Libraries\STM32F0xx_StdPeriph_Driver\src/stm32f0xx_gpio.c ****   * @param  GPIO_Pin: specifies the port bit to read.
 279:..\..\STM32F0-Discovery_FW_V1.0.0\Libraries\STM32F0xx_StdPeriph_Driver\src/stm32f0xx_gpio.c ****   * @note   This parameter can be GPIO_Pin_x where x can be:(0..15) for GPIOA, 
 280:..\..\STM32F0-Discovery_FW_V1.0.0\Libraries\STM32F0xx_StdPeriph_Driver\src/stm32f0xx_gpio.c ****   *         GPIOB or GPIOC,(0..2) for GPIOD and(0..3) for GPIOF.
 281:..\..\STM32F0-Discovery_FW_V1.0.0\Libraries\STM32F0xx_StdPeriph_Driver\src/stm32f0xx_gpio.c ****   * @retval The input port pin value.
 282:..\..\STM32F0-Discovery_FW_V1.0.0\Libraries\STM32F0xx_StdPeriph_Driver\src/stm32f0xx_gpio.c ****   */
 283:..\..\STM32F0-Discovery_FW_V1.0.0\Libraries\STM32F0xx_StdPeriph_Driver\src/stm32f0xx_gpio.c **** uint8_t GPIO_ReadInputDataBit(GPIO_TypeDef* GPIOx, uint16_t GPIO_Pin)
 284:..\..\STM32F0-Discovery_FW_V1.0.0\Libraries\STM32F0xx_StdPeriph_Driver\src/stm32f0xx_gpio.c **** {
ARM GAS  C:\Users\Patrick\AppData\Local\Temp\cc7hK0kh.s 			page 13


 392              		.loc 1 284 0
 393              		.cfi_startproc
 394              	.LVL25:
 285:..\..\STM32F0-Discovery_FW_V1.0.0\Libraries\STM32F0xx_StdPeriph_Driver\src/stm32f0xx_gpio.c ****   uint8_t bitstatus = 0x00;
 286:..\..\STM32F0-Discovery_FW_V1.0.0\Libraries\STM32F0xx_StdPeriph_Driver\src/stm32f0xx_gpio.c **** 
 287:..\..\STM32F0-Discovery_FW_V1.0.0\Libraries\STM32F0xx_StdPeriph_Driver\src/stm32f0xx_gpio.c ****   /* Check the parameters */
 288:..\..\STM32F0-Discovery_FW_V1.0.0\Libraries\STM32F0xx_StdPeriph_Driver\src/stm32f0xx_gpio.c ****   assert_param(IS_GPIO_ALL_PERIPH(GPIOx));
 289:..\..\STM32F0-Discovery_FW_V1.0.0\Libraries\STM32F0xx_StdPeriph_Driver\src/stm32f0xx_gpio.c ****   assert_param(IS_GET_GPIO_PIN(GPIO_Pin));
 290:..\..\STM32F0-Discovery_FW_V1.0.0\Libraries\STM32F0xx_StdPeriph_Driver\src/stm32f0xx_gpio.c **** 
 291:..\..\STM32F0-Discovery_FW_V1.0.0\Libraries\STM32F0xx_StdPeriph_Driver\src/stm32f0xx_gpio.c ****   if ((GPIOx->IDR & GPIO_Pin) != (uint32_t)Bit_RESET)
 395              		.loc 1 291 0
 396 013c 0069     		ldr	r0, [r0, #16]	@ tmp117,
 397              	.LVL26:
 292:..\..\STM32F0-Discovery_FW_V1.0.0\Libraries\STM32F0xx_StdPeriph_Driver\src/stm32f0xx_gpio.c ****   {
 293:..\..\STM32F0-Discovery_FW_V1.0.0\Libraries\STM32F0xx_StdPeriph_Driver\src/stm32f0xx_gpio.c ****     bitstatus = (uint8_t)Bit_SET;
 294:..\..\STM32F0-Discovery_FW_V1.0.0\Libraries\STM32F0xx_StdPeriph_Driver\src/stm32f0xx_gpio.c ****   }
 295:..\..\STM32F0-Discovery_FW_V1.0.0\Libraries\STM32F0xx_StdPeriph_Driver\src/stm32f0xx_gpio.c ****   else
 296:..\..\STM32F0-Discovery_FW_V1.0.0\Libraries\STM32F0xx_StdPeriph_Driver\src/stm32f0xx_gpio.c ****   {
 297:..\..\STM32F0-Discovery_FW_V1.0.0\Libraries\STM32F0xx_StdPeriph_Driver\src/stm32f0xx_gpio.c ****     bitstatus = (uint8_t)Bit_RESET;
 298:..\..\STM32F0-Discovery_FW_V1.0.0\Libraries\STM32F0xx_StdPeriph_Driver\src/stm32f0xx_gpio.c ****   }
 299:..\..\STM32F0-Discovery_FW_V1.0.0\Libraries\STM32F0xx_StdPeriph_Driver\src/stm32f0xx_gpio.c ****   return bitstatus;
 300:..\..\STM32F0-Discovery_FW_V1.0.0\Libraries\STM32F0xx_StdPeriph_Driver\src/stm32f0xx_gpio.c **** }
 398              		.loc 1 300 0
 399              		@ sp needed	@
 291:..\..\STM32F0-Discovery_FW_V1.0.0\Libraries\STM32F0xx_StdPeriph_Driver\src/stm32f0xx_gpio.c ****   if ((GPIOx->IDR & GPIO_Pin) != (uint32_t)Bit_RESET)
 400              		.loc 1 291 0
 401 013e 0840     		and	r0, r1	@ tmp120, GPIO_Pin
 402              	.LVL27:
 403 0140 431E     		sub	r3, r0, #1	@ tmp122, tmp120
 404 0142 9841     		sbc	r0, r0, r3	@ tmp121, tmp120, tmp122
 299:..\..\STM32F0-Discovery_FW_V1.0.0\Libraries\STM32F0xx_StdPeriph_Driver\src/stm32f0xx_gpio.c ****   return bitstatus;
 405              		.loc 1 299 0
 406 0144 C0B2     		uxtb	r0, r0	@ D.4986, tmp121
 407              		.loc 1 300 0
 408 0146 7047     		bx	lr
 409              		.cfi_endproc
 410              	.LFE36:
 411              		.size	GPIO_ReadInputDataBit, .-GPIO_ReadInputDataBit
 412              		.align	1
 413              		.global	GPIO_ReadInputData
 414              		.code	16
 415              		.thumb_func
 416              		.type	GPIO_ReadInputData, %function
 417              	GPIO_ReadInputData:
 418              	.LFB37:
 301:..\..\STM32F0-Discovery_FW_V1.0.0\Libraries\STM32F0xx_StdPeriph_Driver\src/stm32f0xx_gpio.c **** 
 302:..\..\STM32F0-Discovery_FW_V1.0.0\Libraries\STM32F0xx_StdPeriph_Driver\src/stm32f0xx_gpio.c **** /**
 303:..\..\STM32F0-Discovery_FW_V1.0.0\Libraries\STM32F0xx_StdPeriph_Driver\src/stm32f0xx_gpio.c ****   * @brief  Reads the specified input port pin.
 304:..\..\STM32F0-Discovery_FW_V1.0.0\Libraries\STM32F0xx_StdPeriph_Driver\src/stm32f0xx_gpio.c ****   * @param  GPIOx: where x can be (A, B, C, D or F) to select the GPIO peripheral.
 305:..\..\STM32F0-Discovery_FW_V1.0.0\Libraries\STM32F0xx_StdPeriph_Driver\src/stm32f0xx_gpio.c ****   * @retval The input port pin value.
 306:..\..\STM32F0-Discovery_FW_V1.0.0\Libraries\STM32F0xx_StdPeriph_Driver\src/stm32f0xx_gpio.c ****   */
 307:..\..\STM32F0-Discovery_FW_V1.0.0\Libraries\STM32F0xx_StdPeriph_Driver\src/stm32f0xx_gpio.c **** uint16_t GPIO_ReadInputData(GPIO_TypeDef* GPIOx)
 308:..\..\STM32F0-Discovery_FW_V1.0.0\Libraries\STM32F0xx_StdPeriph_Driver\src/stm32f0xx_gpio.c **** {
 419              		.loc 1 308 0
 420              		.cfi_startproc
 421              	.LVL28:
 309:..\..\STM32F0-Discovery_FW_V1.0.0\Libraries\STM32F0xx_StdPeriph_Driver\src/stm32f0xx_gpio.c ****   /* Check the parameters */
ARM GAS  C:\Users\Patrick\AppData\Local\Temp\cc7hK0kh.s 			page 14


 310:..\..\STM32F0-Discovery_FW_V1.0.0\Libraries\STM32F0xx_StdPeriph_Driver\src/stm32f0xx_gpio.c ****   assert_param(IS_GPIO_ALL_PERIPH(GPIOx));
 311:..\..\STM32F0-Discovery_FW_V1.0.0\Libraries\STM32F0xx_StdPeriph_Driver\src/stm32f0xx_gpio.c **** 
 312:..\..\STM32F0-Discovery_FW_V1.0.0\Libraries\STM32F0xx_StdPeriph_Driver\src/stm32f0xx_gpio.c ****   return ((uint16_t)GPIOx->IDR);
 422              		.loc 1 312 0
 423 0148 0069     		ldr	r0, [r0, #16]	@ tmp113,
 424              	.LVL29:
 313:..\..\STM32F0-Discovery_FW_V1.0.0\Libraries\STM32F0xx_StdPeriph_Driver\src/stm32f0xx_gpio.c **** }
 425              		.loc 1 313 0
 426              		@ sp needed	@
 312:..\..\STM32F0-Discovery_FW_V1.0.0\Libraries\STM32F0xx_StdPeriph_Driver\src/stm32f0xx_gpio.c ****   return ((uint16_t)GPIOx->IDR);
 427              		.loc 1 312 0
 428 014a 80B2     		uxth	r0, r0	@ D.4990, tmp113
 429              		.loc 1 313 0
 430 014c 7047     		bx	lr
 431              		.cfi_endproc
 432              	.LFE37:
 433              		.size	GPIO_ReadInputData, .-GPIO_ReadInputData
 434              		.align	1
 435              		.global	GPIO_ReadOutputDataBit
 436              		.code	16
 437              		.thumb_func
 438              		.type	GPIO_ReadOutputDataBit, %function
 439              	GPIO_ReadOutputDataBit:
 440              	.LFB38:
 314:..\..\STM32F0-Discovery_FW_V1.0.0\Libraries\STM32F0xx_StdPeriph_Driver\src/stm32f0xx_gpio.c **** 
 315:..\..\STM32F0-Discovery_FW_V1.0.0\Libraries\STM32F0xx_StdPeriph_Driver\src/stm32f0xx_gpio.c **** /**
 316:..\..\STM32F0-Discovery_FW_V1.0.0\Libraries\STM32F0xx_StdPeriph_Driver\src/stm32f0xx_gpio.c ****   * @brief  Reads the specified output data port bit.
 317:..\..\STM32F0-Discovery_FW_V1.0.0\Libraries\STM32F0xx_StdPeriph_Driver\src/stm32f0xx_gpio.c ****   * @param  GPIOx: where x can be (A, B, C, D or F) to select the GPIO peripheral.
 318:..\..\STM32F0-Discovery_FW_V1.0.0\Libraries\STM32F0xx_StdPeriph_Driver\src/stm32f0xx_gpio.c ****   * @param  GPIO_Pin: Specifies the port bit to read.
 319:..\..\STM32F0-Discovery_FW_V1.0.0\Libraries\STM32F0xx_StdPeriph_Driver\src/stm32f0xx_gpio.c ****   * @note   This parameter can be GPIO_Pin_x where x can be:(0..15) for GPIOA, 
 320:..\..\STM32F0-Discovery_FW_V1.0.0\Libraries\STM32F0xx_StdPeriph_Driver\src/stm32f0xx_gpio.c ****   *         GPIOB or GPIOC,(0..2) for GPIOD and(0..3) for GPIOF.
 321:..\..\STM32F0-Discovery_FW_V1.0.0\Libraries\STM32F0xx_StdPeriph_Driver\src/stm32f0xx_gpio.c ****   * @retval The output port pin value.
 322:..\..\STM32F0-Discovery_FW_V1.0.0\Libraries\STM32F0xx_StdPeriph_Driver\src/stm32f0xx_gpio.c ****   */
 323:..\..\STM32F0-Discovery_FW_V1.0.0\Libraries\STM32F0xx_StdPeriph_Driver\src/stm32f0xx_gpio.c **** uint8_t GPIO_ReadOutputDataBit(GPIO_TypeDef* GPIOx, uint16_t GPIO_Pin)
 324:..\..\STM32F0-Discovery_FW_V1.0.0\Libraries\STM32F0xx_StdPeriph_Driver\src/stm32f0xx_gpio.c **** {
 441              		.loc 1 324 0
 442              		.cfi_startproc
 443              	.LVL30:
 325:..\..\STM32F0-Discovery_FW_V1.0.0\Libraries\STM32F0xx_StdPeriph_Driver\src/stm32f0xx_gpio.c ****   uint8_t bitstatus = 0x00;
 326:..\..\STM32F0-Discovery_FW_V1.0.0\Libraries\STM32F0xx_StdPeriph_Driver\src/stm32f0xx_gpio.c **** 
 327:..\..\STM32F0-Discovery_FW_V1.0.0\Libraries\STM32F0xx_StdPeriph_Driver\src/stm32f0xx_gpio.c ****   /* Check the parameters */
 328:..\..\STM32F0-Discovery_FW_V1.0.0\Libraries\STM32F0xx_StdPeriph_Driver\src/stm32f0xx_gpio.c ****   assert_param(IS_GPIO_ALL_PERIPH(GPIOx));
 329:..\..\STM32F0-Discovery_FW_V1.0.0\Libraries\STM32F0xx_StdPeriph_Driver\src/stm32f0xx_gpio.c ****   assert_param(IS_GET_GPIO_PIN(GPIO_Pin));
 330:..\..\STM32F0-Discovery_FW_V1.0.0\Libraries\STM32F0xx_StdPeriph_Driver\src/stm32f0xx_gpio.c **** 
 331:..\..\STM32F0-Discovery_FW_V1.0.0\Libraries\STM32F0xx_StdPeriph_Driver\src/stm32f0xx_gpio.c ****   if ((GPIOx->ODR & GPIO_Pin) != (uint32_t)Bit_RESET)
 444              		.loc 1 331 0
 445 014e 4069     		ldr	r0, [r0, #20]	@ tmp117,
 446              	.LVL31:
 332:..\..\STM32F0-Discovery_FW_V1.0.0\Libraries\STM32F0xx_StdPeriph_Driver\src/stm32f0xx_gpio.c ****   {
 333:..\..\STM32F0-Discovery_FW_V1.0.0\Libraries\STM32F0xx_StdPeriph_Driver\src/stm32f0xx_gpio.c ****     bitstatus = (uint8_t)Bit_SET;
 334:..\..\STM32F0-Discovery_FW_V1.0.0\Libraries\STM32F0xx_StdPeriph_Driver\src/stm32f0xx_gpio.c ****   }
 335:..\..\STM32F0-Discovery_FW_V1.0.0\Libraries\STM32F0xx_StdPeriph_Driver\src/stm32f0xx_gpio.c ****   else
 336:..\..\STM32F0-Discovery_FW_V1.0.0\Libraries\STM32F0xx_StdPeriph_Driver\src/stm32f0xx_gpio.c ****   {
 337:..\..\STM32F0-Discovery_FW_V1.0.0\Libraries\STM32F0xx_StdPeriph_Driver\src/stm32f0xx_gpio.c ****     bitstatus = (uint8_t)Bit_RESET;
 338:..\..\STM32F0-Discovery_FW_V1.0.0\Libraries\STM32F0xx_StdPeriph_Driver\src/stm32f0xx_gpio.c ****   }
 339:..\..\STM32F0-Discovery_FW_V1.0.0\Libraries\STM32F0xx_StdPeriph_Driver\src/stm32f0xx_gpio.c ****   return bitstatus;
 340:..\..\STM32F0-Discovery_FW_V1.0.0\Libraries\STM32F0xx_StdPeriph_Driver\src/stm32f0xx_gpio.c **** }
ARM GAS  C:\Users\Patrick\AppData\Local\Temp\cc7hK0kh.s 			page 15


 447              		.loc 1 340 0
 448              		@ sp needed	@
 331:..\..\STM32F0-Discovery_FW_V1.0.0\Libraries\STM32F0xx_StdPeriph_Driver\src/stm32f0xx_gpio.c ****   if ((GPIOx->ODR & GPIO_Pin) != (uint32_t)Bit_RESET)
 449              		.loc 1 331 0
 450 0150 0840     		and	r0, r1	@ tmp120, GPIO_Pin
 451              	.LVL32:
 452 0152 431E     		sub	r3, r0, #1	@ tmp122, tmp120
 453 0154 9841     		sbc	r0, r0, r3	@ tmp121, tmp120, tmp122
 339:..\..\STM32F0-Discovery_FW_V1.0.0\Libraries\STM32F0xx_StdPeriph_Driver\src/stm32f0xx_gpio.c ****   return bitstatus;
 454              		.loc 1 339 0
 455 0156 C0B2     		uxtb	r0, r0	@ D.4994, tmp121
 456              		.loc 1 340 0
 457 0158 7047     		bx	lr
 458              		.cfi_endproc
 459              	.LFE38:
 460              		.size	GPIO_ReadOutputDataBit, .-GPIO_ReadOutputDataBit
 461              		.align	1
 462              		.global	GPIO_ReadOutputData
 463              		.code	16
 464              		.thumb_func
 465              		.type	GPIO_ReadOutputData, %function
 466              	GPIO_ReadOutputData:
 467              	.LFB39:
 341:..\..\STM32F0-Discovery_FW_V1.0.0\Libraries\STM32F0xx_StdPeriph_Driver\src/stm32f0xx_gpio.c **** 
 342:..\..\STM32F0-Discovery_FW_V1.0.0\Libraries\STM32F0xx_StdPeriph_Driver\src/stm32f0xx_gpio.c **** /**
 343:..\..\STM32F0-Discovery_FW_V1.0.0\Libraries\STM32F0xx_StdPeriph_Driver\src/stm32f0xx_gpio.c ****   * @brief  Reads the specified GPIO output data port.
 344:..\..\STM32F0-Discovery_FW_V1.0.0\Libraries\STM32F0xx_StdPeriph_Driver\src/stm32f0xx_gpio.c ****   * @param  GPIOx: where x can be (A, B, C, D or F) to select the GPIO peripheral.
 345:..\..\STM32F0-Discovery_FW_V1.0.0\Libraries\STM32F0xx_StdPeriph_Driver\src/stm32f0xx_gpio.c ****   * @retval GPIO output data port value.
 346:..\..\STM32F0-Discovery_FW_V1.0.0\Libraries\STM32F0xx_StdPeriph_Driver\src/stm32f0xx_gpio.c ****   */
 347:..\..\STM32F0-Discovery_FW_V1.0.0\Libraries\STM32F0xx_StdPeriph_Driver\src/stm32f0xx_gpio.c **** uint16_t GPIO_ReadOutputData(GPIO_TypeDef* GPIOx)
 348:..\..\STM32F0-Discovery_FW_V1.0.0\Libraries\STM32F0xx_StdPeriph_Driver\src/stm32f0xx_gpio.c **** {
 468              		.loc 1 348 0
 469              		.cfi_startproc
 470              	.LVL33:
 349:..\..\STM32F0-Discovery_FW_V1.0.0\Libraries\STM32F0xx_StdPeriph_Driver\src/stm32f0xx_gpio.c ****   /* Check the parameters */
 350:..\..\STM32F0-Discovery_FW_V1.0.0\Libraries\STM32F0xx_StdPeriph_Driver\src/stm32f0xx_gpio.c ****   assert_param(IS_GPIO_ALL_PERIPH(GPIOx));
 351:..\..\STM32F0-Discovery_FW_V1.0.0\Libraries\STM32F0xx_StdPeriph_Driver\src/stm32f0xx_gpio.c **** 
 352:..\..\STM32F0-Discovery_FW_V1.0.0\Libraries\STM32F0xx_StdPeriph_Driver\src/stm32f0xx_gpio.c ****   return ((uint16_t)GPIOx->ODR);
 471              		.loc 1 352 0
 472 015a 4069     		ldr	r0, [r0, #20]	@ tmp113,
 473              	.LVL34:
 353:..\..\STM32F0-Discovery_FW_V1.0.0\Libraries\STM32F0xx_StdPeriph_Driver\src/stm32f0xx_gpio.c **** }
 474              		.loc 1 353 0
 475              		@ sp needed	@
 352:..\..\STM32F0-Discovery_FW_V1.0.0\Libraries\STM32F0xx_StdPeriph_Driver\src/stm32f0xx_gpio.c ****   return ((uint16_t)GPIOx->ODR);
 476              		.loc 1 352 0
 477 015c 80B2     		uxth	r0, r0	@ D.4998, tmp113
 478              		.loc 1 353 0
 479 015e 7047     		bx	lr
 480              		.cfi_endproc
 481              	.LFE39:
 482              		.size	GPIO_ReadOutputData, .-GPIO_ReadOutputData
 483              		.align	1
 484              		.global	GPIO_SetBits
 485              		.code	16
 486              		.thumb_func
 487              		.type	GPIO_SetBits, %function
ARM GAS  C:\Users\Patrick\AppData\Local\Temp\cc7hK0kh.s 			page 16


 488              	GPIO_SetBits:
 489              	.LFB40:
 354:..\..\STM32F0-Discovery_FW_V1.0.0\Libraries\STM32F0xx_StdPeriph_Driver\src/stm32f0xx_gpio.c **** 
 355:..\..\STM32F0-Discovery_FW_V1.0.0\Libraries\STM32F0xx_StdPeriph_Driver\src/stm32f0xx_gpio.c **** /**
 356:..\..\STM32F0-Discovery_FW_V1.0.0\Libraries\STM32F0xx_StdPeriph_Driver\src/stm32f0xx_gpio.c ****   * @brief  Sets the selected data port bits.
 357:..\..\STM32F0-Discovery_FW_V1.0.0\Libraries\STM32F0xx_StdPeriph_Driver\src/stm32f0xx_gpio.c ****   * @param  GPIOx: where x can be (A, B, C, D or F) to select the GPIO peripheral.
 358:..\..\STM32F0-Discovery_FW_V1.0.0\Libraries\STM32F0xx_StdPeriph_Driver\src/stm32f0xx_gpio.c ****   * @param  GPIO_Pin: specifies the port bits to be written.
 359:..\..\STM32F0-Discovery_FW_V1.0.0\Libraries\STM32F0xx_StdPeriph_Driver\src/stm32f0xx_gpio.c ****   * @note   This parameter can be GPIO_Pin_x where x can be:(0..15) for GPIOA, 
 360:..\..\STM32F0-Discovery_FW_V1.0.0\Libraries\STM32F0xx_StdPeriph_Driver\src/stm32f0xx_gpio.c ****   *         GPIOB or GPIOC,(0..2) for GPIOD and(0..3) for GPIOF.
 361:..\..\STM32F0-Discovery_FW_V1.0.0\Libraries\STM32F0xx_StdPeriph_Driver\src/stm32f0xx_gpio.c ****   * @retval None
 362:..\..\STM32F0-Discovery_FW_V1.0.0\Libraries\STM32F0xx_StdPeriph_Driver\src/stm32f0xx_gpio.c ****   */
 363:..\..\STM32F0-Discovery_FW_V1.0.0\Libraries\STM32F0xx_StdPeriph_Driver\src/stm32f0xx_gpio.c **** void GPIO_SetBits(GPIO_TypeDef* GPIOx, uint16_t GPIO_Pin)
 364:..\..\STM32F0-Discovery_FW_V1.0.0\Libraries\STM32F0xx_StdPeriph_Driver\src/stm32f0xx_gpio.c **** {
 490              		.loc 1 364 0
 491              		.cfi_startproc
 492              	.LVL35:
 365:..\..\STM32F0-Discovery_FW_V1.0.0\Libraries\STM32F0xx_StdPeriph_Driver\src/stm32f0xx_gpio.c ****   /* Check the parameters */
 366:..\..\STM32F0-Discovery_FW_V1.0.0\Libraries\STM32F0xx_StdPeriph_Driver\src/stm32f0xx_gpio.c ****   assert_param(IS_GPIO_ALL_PERIPH(GPIOx));
 367:..\..\STM32F0-Discovery_FW_V1.0.0\Libraries\STM32F0xx_StdPeriph_Driver\src/stm32f0xx_gpio.c ****   assert_param(IS_GPIO_PIN(GPIO_Pin));
 368:..\..\STM32F0-Discovery_FW_V1.0.0\Libraries\STM32F0xx_StdPeriph_Driver\src/stm32f0xx_gpio.c **** 
 369:..\..\STM32F0-Discovery_FW_V1.0.0\Libraries\STM32F0xx_StdPeriph_Driver\src/stm32f0xx_gpio.c ****   GPIOx->BSRR = GPIO_Pin;
 493              		.loc 1 369 0
 494 0160 8161     		str	r1, [r0, #24]	@ GPIO_Pin, GPIOx_4(D)->BSRR
 370:..\..\STM32F0-Discovery_FW_V1.0.0\Libraries\STM32F0xx_StdPeriph_Driver\src/stm32f0xx_gpio.c **** }
 495              		.loc 1 370 0
 496              		@ sp needed	@
 497 0162 7047     		bx	lr
 498              		.cfi_endproc
 499              	.LFE40:
 500              		.size	GPIO_SetBits, .-GPIO_SetBits
 501              		.align	1
 502              		.global	GPIO_ResetBits
 503              		.code	16
 504              		.thumb_func
 505              		.type	GPIO_ResetBits, %function
 506              	GPIO_ResetBits:
 507              	.LFB41:
 371:..\..\STM32F0-Discovery_FW_V1.0.0\Libraries\STM32F0xx_StdPeriph_Driver\src/stm32f0xx_gpio.c **** 
 372:..\..\STM32F0-Discovery_FW_V1.0.0\Libraries\STM32F0xx_StdPeriph_Driver\src/stm32f0xx_gpio.c **** /**
 373:..\..\STM32F0-Discovery_FW_V1.0.0\Libraries\STM32F0xx_StdPeriph_Driver\src/stm32f0xx_gpio.c ****   * @brief  Clears the selected data port bits.
 374:..\..\STM32F0-Discovery_FW_V1.0.0\Libraries\STM32F0xx_StdPeriph_Driver\src/stm32f0xx_gpio.c ****   * @param  GPIOx: where x can be (A, B, C, D or F) to select the GPIO peripheral.
 375:..\..\STM32F0-Discovery_FW_V1.0.0\Libraries\STM32F0xx_StdPeriph_Driver\src/stm32f0xx_gpio.c ****   * @param  GPIO_Pin: specifies the port bits to be written.
 376:..\..\STM32F0-Discovery_FW_V1.0.0\Libraries\STM32F0xx_StdPeriph_Driver\src/stm32f0xx_gpio.c ****   * @note   This parameter can be GPIO_Pin_x where x can be: (0..15) for GPIOA, 
 377:..\..\STM32F0-Discovery_FW_V1.0.0\Libraries\STM32F0xx_StdPeriph_Driver\src/stm32f0xx_gpio.c ****   *         GPIOB or GPIOC,(0..2) for GPIOD and(0..3) for GPIOF.
 378:..\..\STM32F0-Discovery_FW_V1.0.0\Libraries\STM32F0xx_StdPeriph_Driver\src/stm32f0xx_gpio.c ****   * @retval None
 379:..\..\STM32F0-Discovery_FW_V1.0.0\Libraries\STM32F0xx_StdPeriph_Driver\src/stm32f0xx_gpio.c ****   */
 380:..\..\STM32F0-Discovery_FW_V1.0.0\Libraries\STM32F0xx_StdPeriph_Driver\src/stm32f0xx_gpio.c **** void GPIO_ResetBits(GPIO_TypeDef* GPIOx, uint16_t GPIO_Pin)
 381:..\..\STM32F0-Discovery_FW_V1.0.0\Libraries\STM32F0xx_StdPeriph_Driver\src/stm32f0xx_gpio.c **** {
 508              		.loc 1 381 0
 509              		.cfi_startproc
 510              	.LVL36:
 382:..\..\STM32F0-Discovery_FW_V1.0.0\Libraries\STM32F0xx_StdPeriph_Driver\src/stm32f0xx_gpio.c ****   /* Check the parameters */
 383:..\..\STM32F0-Discovery_FW_V1.0.0\Libraries\STM32F0xx_StdPeriph_Driver\src/stm32f0xx_gpio.c ****   assert_param(IS_GPIO_ALL_PERIPH(GPIOx));
 384:..\..\STM32F0-Discovery_FW_V1.0.0\Libraries\STM32F0xx_StdPeriph_Driver\src/stm32f0xx_gpio.c ****   assert_param(IS_GPIO_PIN(GPIO_Pin));
 385:..\..\STM32F0-Discovery_FW_V1.0.0\Libraries\STM32F0xx_StdPeriph_Driver\src/stm32f0xx_gpio.c **** 
 386:..\..\STM32F0-Discovery_FW_V1.0.0\Libraries\STM32F0xx_StdPeriph_Driver\src/stm32f0xx_gpio.c ****   GPIOx->BRR = GPIO_Pin;
 511              		.loc 1 386 0
ARM GAS  C:\Users\Patrick\AppData\Local\Temp\cc7hK0kh.s 			page 17


 512 0164 0185     		strh	r1, [r0, #40]	@ GPIO_Pin, GPIOx_2(D)->BRR
 387:..\..\STM32F0-Discovery_FW_V1.0.0\Libraries\STM32F0xx_StdPeriph_Driver\src/stm32f0xx_gpio.c **** }
 513              		.loc 1 387 0
 514              		@ sp needed	@
 515 0166 7047     		bx	lr
 516              		.cfi_endproc
 517              	.LFE41:
 518              		.size	GPIO_ResetBits, .-GPIO_ResetBits
 519              		.align	1
 520              		.global	GPIO_WriteBit
 521              		.code	16
 522              		.thumb_func
 523              		.type	GPIO_WriteBit, %function
 524              	GPIO_WriteBit:
 525              	.LFB42:
 388:..\..\STM32F0-Discovery_FW_V1.0.0\Libraries\STM32F0xx_StdPeriph_Driver\src/stm32f0xx_gpio.c **** 
 389:..\..\STM32F0-Discovery_FW_V1.0.0\Libraries\STM32F0xx_StdPeriph_Driver\src/stm32f0xx_gpio.c **** /**
 390:..\..\STM32F0-Discovery_FW_V1.0.0\Libraries\STM32F0xx_StdPeriph_Driver\src/stm32f0xx_gpio.c ****   * @brief  Sets or clears the selected data port bit.
 391:..\..\STM32F0-Discovery_FW_V1.0.0\Libraries\STM32F0xx_StdPeriph_Driver\src/stm32f0xx_gpio.c ****   * @param  GPIOx: where x can be (A, B, C, D or F) to select the GPIO peripheral.
 392:..\..\STM32F0-Discovery_FW_V1.0.0\Libraries\STM32F0xx_StdPeriph_Driver\src/stm32f0xx_gpio.c ****   * @param  GPIO_Pin: specifies the port bit to be written.
 393:..\..\STM32F0-Discovery_FW_V1.0.0\Libraries\STM32F0xx_StdPeriph_Driver\src/stm32f0xx_gpio.c ****   * @param  BitVal: specifies the value to be written to the selected bit.
 394:..\..\STM32F0-Discovery_FW_V1.0.0\Libraries\STM32F0xx_StdPeriph_Driver\src/stm32f0xx_gpio.c ****   *   This parameter can be one of the BitAction enumeration values:
 395:..\..\STM32F0-Discovery_FW_V1.0.0\Libraries\STM32F0xx_StdPeriph_Driver\src/stm32f0xx_gpio.c ****   *     @arg Bit_RESET: to clear the port pin
 396:..\..\STM32F0-Discovery_FW_V1.0.0\Libraries\STM32F0xx_StdPeriph_Driver\src/stm32f0xx_gpio.c ****   *     @arg Bit_SET: to set the port pin
 397:..\..\STM32F0-Discovery_FW_V1.0.0\Libraries\STM32F0xx_StdPeriph_Driver\src/stm32f0xx_gpio.c ****   * @note   The GPIO_Pin parameter can be GPIO_Pin_x where x can be: (0..15) for GPIOA, 
 398:..\..\STM32F0-Discovery_FW_V1.0.0\Libraries\STM32F0xx_StdPeriph_Driver\src/stm32f0xx_gpio.c ****   *         GPIOB or GPIOC,(0..2) for GPIOD and(0..3) for GPIOF.  
 399:..\..\STM32F0-Discovery_FW_V1.0.0\Libraries\STM32F0xx_StdPeriph_Driver\src/stm32f0xx_gpio.c ****   * @retval None
 400:..\..\STM32F0-Discovery_FW_V1.0.0\Libraries\STM32F0xx_StdPeriph_Driver\src/stm32f0xx_gpio.c ****   */
 401:..\..\STM32F0-Discovery_FW_V1.0.0\Libraries\STM32F0xx_StdPeriph_Driver\src/stm32f0xx_gpio.c **** void GPIO_WriteBit(GPIO_TypeDef* GPIOx, uint16_t GPIO_Pin, BitAction BitVal)
 402:..\..\STM32F0-Discovery_FW_V1.0.0\Libraries\STM32F0xx_StdPeriph_Driver\src/stm32f0xx_gpio.c **** {
 526              		.loc 1 402 0
 527              		.cfi_startproc
 528              	.LVL37:
 403:..\..\STM32F0-Discovery_FW_V1.0.0\Libraries\STM32F0xx_StdPeriph_Driver\src/stm32f0xx_gpio.c ****   /* Check the parameters */
 404:..\..\STM32F0-Discovery_FW_V1.0.0\Libraries\STM32F0xx_StdPeriph_Driver\src/stm32f0xx_gpio.c ****   assert_param(IS_GPIO_ALL_PERIPH(GPIOx));
 405:..\..\STM32F0-Discovery_FW_V1.0.0\Libraries\STM32F0xx_StdPeriph_Driver\src/stm32f0xx_gpio.c ****   assert_param(IS_GET_GPIO_PIN(GPIO_Pin));
 406:..\..\STM32F0-Discovery_FW_V1.0.0\Libraries\STM32F0xx_StdPeriph_Driver\src/stm32f0xx_gpio.c ****   assert_param(IS_GPIO_BIT_ACTION(BitVal));
 407:..\..\STM32F0-Discovery_FW_V1.0.0\Libraries\STM32F0xx_StdPeriph_Driver\src/stm32f0xx_gpio.c **** 
 408:..\..\STM32F0-Discovery_FW_V1.0.0\Libraries\STM32F0xx_StdPeriph_Driver\src/stm32f0xx_gpio.c ****   if (BitVal != Bit_RESET)
 529              		.loc 1 408 0
 530 0168 002A     		cmp	r2, #0	@ BitVal,
 531 016a 01D0     		beq	.L27	@,
 409:..\..\STM32F0-Discovery_FW_V1.0.0\Libraries\STM32F0xx_StdPeriph_Driver\src/stm32f0xx_gpio.c ****   {
 410:..\..\STM32F0-Discovery_FW_V1.0.0\Libraries\STM32F0xx_StdPeriph_Driver\src/stm32f0xx_gpio.c ****     GPIOx->BSRR = GPIO_Pin;
 532              		.loc 1 410 0
 533 016c 8161     		str	r1, [r0, #24]	@ GPIO_Pin, GPIOx_6(D)->BSRR
 534 016e 00E0     		b	.L26	@
 535              	.L27:
 411:..\..\STM32F0-Discovery_FW_V1.0.0\Libraries\STM32F0xx_StdPeriph_Driver\src/stm32f0xx_gpio.c ****   }
 412:..\..\STM32F0-Discovery_FW_V1.0.0\Libraries\STM32F0xx_StdPeriph_Driver\src/stm32f0xx_gpio.c ****   else
 413:..\..\STM32F0-Discovery_FW_V1.0.0\Libraries\STM32F0xx_StdPeriph_Driver\src/stm32f0xx_gpio.c ****   {
 414:..\..\STM32F0-Discovery_FW_V1.0.0\Libraries\STM32F0xx_StdPeriph_Driver\src/stm32f0xx_gpio.c ****     GPIOx->BRR = GPIO_Pin ;
 536              		.loc 1 414 0
 537 0170 0185     		strh	r1, [r0, #40]	@ GPIO_Pin, GPIOx_6(D)->BRR
 538              	.L26:
 415:..\..\STM32F0-Discovery_FW_V1.0.0\Libraries\STM32F0xx_StdPeriph_Driver\src/stm32f0xx_gpio.c ****   }
 416:..\..\STM32F0-Discovery_FW_V1.0.0\Libraries\STM32F0xx_StdPeriph_Driver\src/stm32f0xx_gpio.c **** }
ARM GAS  C:\Users\Patrick\AppData\Local\Temp\cc7hK0kh.s 			page 18


 539              		.loc 1 416 0
 540              		@ sp needed	@
 541 0172 7047     		bx	lr
 542              		.cfi_endproc
 543              	.LFE42:
 544              		.size	GPIO_WriteBit, .-GPIO_WriteBit
 545              		.align	1
 546              		.global	GPIO_Write
 547              		.code	16
 548              		.thumb_func
 549              		.type	GPIO_Write, %function
 550              	GPIO_Write:
 551              	.LFB43:
 417:..\..\STM32F0-Discovery_FW_V1.0.0\Libraries\STM32F0xx_StdPeriph_Driver\src/stm32f0xx_gpio.c **** 
 418:..\..\STM32F0-Discovery_FW_V1.0.0\Libraries\STM32F0xx_StdPeriph_Driver\src/stm32f0xx_gpio.c **** /**
 419:..\..\STM32F0-Discovery_FW_V1.0.0\Libraries\STM32F0xx_StdPeriph_Driver\src/stm32f0xx_gpio.c ****   * @brief  Writes data to the specified GPIO data port.
 420:..\..\STM32F0-Discovery_FW_V1.0.0\Libraries\STM32F0xx_StdPeriph_Driver\src/stm32f0xx_gpio.c ****   * @param  GPIOx: where x can be (A, B, C, D or F) to select the GPIO peripheral.
 421:..\..\STM32F0-Discovery_FW_V1.0.0\Libraries\STM32F0xx_StdPeriph_Driver\src/stm32f0xx_gpio.c ****   * @param  PortVal: specifies the value to be written to the port output data 
 422:..\..\STM32F0-Discovery_FW_V1.0.0\Libraries\STM32F0xx_StdPeriph_Driver\src/stm32f0xx_gpio.c ****   *                  register.
 423:..\..\STM32F0-Discovery_FW_V1.0.0\Libraries\STM32F0xx_StdPeriph_Driver\src/stm32f0xx_gpio.c ****   * @retval None
 424:..\..\STM32F0-Discovery_FW_V1.0.0\Libraries\STM32F0xx_StdPeriph_Driver\src/stm32f0xx_gpio.c ****   */
 425:..\..\STM32F0-Discovery_FW_V1.0.0\Libraries\STM32F0xx_StdPeriph_Driver\src/stm32f0xx_gpio.c **** void GPIO_Write(GPIO_TypeDef* GPIOx, uint16_t PortVal)
 426:..\..\STM32F0-Discovery_FW_V1.0.0\Libraries\STM32F0xx_StdPeriph_Driver\src/stm32f0xx_gpio.c **** {
 552              		.loc 1 426 0
 553              		.cfi_startproc
 554              	.LVL38:
 427:..\..\STM32F0-Discovery_FW_V1.0.0\Libraries\STM32F0xx_StdPeriph_Driver\src/stm32f0xx_gpio.c ****   /* Check the parameters */
 428:..\..\STM32F0-Discovery_FW_V1.0.0\Libraries\STM32F0xx_StdPeriph_Driver\src/stm32f0xx_gpio.c ****   assert_param(IS_GPIO_ALL_PERIPH(GPIOx));
 429:..\..\STM32F0-Discovery_FW_V1.0.0\Libraries\STM32F0xx_StdPeriph_Driver\src/stm32f0xx_gpio.c **** 
 430:..\..\STM32F0-Discovery_FW_V1.0.0\Libraries\STM32F0xx_StdPeriph_Driver\src/stm32f0xx_gpio.c ****   GPIOx->ODR = PortVal;
 555              		.loc 1 430 0
 556 0174 8182     		strh	r1, [r0, #20]	@ PortVal, GPIOx_2(D)->ODR
 431:..\..\STM32F0-Discovery_FW_V1.0.0\Libraries\STM32F0xx_StdPeriph_Driver\src/stm32f0xx_gpio.c **** }
 557              		.loc 1 431 0
 558              		@ sp needed	@
 559 0176 7047     		bx	lr
 560              		.cfi_endproc
 561              	.LFE43:
 562              		.size	GPIO_Write, .-GPIO_Write
 563              		.align	1
 564              		.global	GPIO_PinAFConfig
 565              		.code	16
 566              		.thumb_func
 567              		.type	GPIO_PinAFConfig, %function
 568              	GPIO_PinAFConfig:
 569              	.LFB44:
 432:..\..\STM32F0-Discovery_FW_V1.0.0\Libraries\STM32F0xx_StdPeriph_Driver\src/stm32f0xx_gpio.c **** 
 433:..\..\STM32F0-Discovery_FW_V1.0.0\Libraries\STM32F0xx_StdPeriph_Driver\src/stm32f0xx_gpio.c **** /**
 434:..\..\STM32F0-Discovery_FW_V1.0.0\Libraries\STM32F0xx_StdPeriph_Driver\src/stm32f0xx_gpio.c ****   * @}
 435:..\..\STM32F0-Discovery_FW_V1.0.0\Libraries\STM32F0xx_StdPeriph_Driver\src/stm32f0xx_gpio.c ****   */
 436:..\..\STM32F0-Discovery_FW_V1.0.0\Libraries\STM32F0xx_StdPeriph_Driver\src/stm32f0xx_gpio.c **** 
 437:..\..\STM32F0-Discovery_FW_V1.0.0\Libraries\STM32F0xx_StdPeriph_Driver\src/stm32f0xx_gpio.c **** /** @defgroup GPIO_Group3 GPIO Alternate functions configuration functions
 438:..\..\STM32F0-Discovery_FW_V1.0.0\Libraries\STM32F0xx_StdPeriph_Driver\src/stm32f0xx_gpio.c ****  *  @brief   GPIO Alternate functions configuration functions
 439:..\..\STM32F0-Discovery_FW_V1.0.0\Libraries\STM32F0xx_StdPeriph_Driver\src/stm32f0xx_gpio.c ****  *
 440:..\..\STM32F0-Discovery_FW_V1.0.0\Libraries\STM32F0xx_StdPeriph_Driver\src/stm32f0xx_gpio.c **** @verbatim   
 441:..\..\STM32F0-Discovery_FW_V1.0.0\Libraries\STM32F0xx_StdPeriph_Driver\src/stm32f0xx_gpio.c ****  ===============================================================================
 442:..\..\STM32F0-Discovery_FW_V1.0.0\Libraries\STM32F0xx_StdPeriph_Driver\src/stm32f0xx_gpio.c ****           ##### GPIO Alternate functions configuration functions #####
ARM GAS  C:\Users\Patrick\AppData\Local\Temp\cc7hK0kh.s 			page 19


 443:..\..\STM32F0-Discovery_FW_V1.0.0\Libraries\STM32F0xx_StdPeriph_Driver\src/stm32f0xx_gpio.c ****  ===============================================================================  
 444:..\..\STM32F0-Discovery_FW_V1.0.0\Libraries\STM32F0xx_StdPeriph_Driver\src/stm32f0xx_gpio.c **** 
 445:..\..\STM32F0-Discovery_FW_V1.0.0\Libraries\STM32F0xx_StdPeriph_Driver\src/stm32f0xx_gpio.c **** @endverbatim
 446:..\..\STM32F0-Discovery_FW_V1.0.0\Libraries\STM32F0xx_StdPeriph_Driver\src/stm32f0xx_gpio.c ****   * @{
 447:..\..\STM32F0-Discovery_FW_V1.0.0\Libraries\STM32F0xx_StdPeriph_Driver\src/stm32f0xx_gpio.c ****   */
 448:..\..\STM32F0-Discovery_FW_V1.0.0\Libraries\STM32F0xx_StdPeriph_Driver\src/stm32f0xx_gpio.c **** 
 449:..\..\STM32F0-Discovery_FW_V1.0.0\Libraries\STM32F0xx_StdPeriph_Driver\src/stm32f0xx_gpio.c **** /**
 450:..\..\STM32F0-Discovery_FW_V1.0.0\Libraries\STM32F0xx_StdPeriph_Driver\src/stm32f0xx_gpio.c ****   * @brief  Writes data to the specified GPIO data port.
 451:..\..\STM32F0-Discovery_FW_V1.0.0\Libraries\STM32F0xx_StdPeriph_Driver\src/stm32f0xx_gpio.c ****   * @param  GPIOx: where x can be (A or B) to select the GPIO peripheral.
 452:..\..\STM32F0-Discovery_FW_V1.0.0\Libraries\STM32F0xx_StdPeriph_Driver\src/stm32f0xx_gpio.c ****   * @param  GPIO_PinSource: specifies the pin for the Alternate function.
 453:..\..\STM32F0-Discovery_FW_V1.0.0\Libraries\STM32F0xx_StdPeriph_Driver\src/stm32f0xx_gpio.c ****   *   This parameter can be GPIO_PinSourcex where x can be (0..15).
 454:..\..\STM32F0-Discovery_FW_V1.0.0\Libraries\STM32F0xx_StdPeriph_Driver\src/stm32f0xx_gpio.c ****   * @param  GPIO_AF: selects the pin to used as Alternate function.
 455:..\..\STM32F0-Discovery_FW_V1.0.0\Libraries\STM32F0xx_StdPeriph_Driver\src/stm32f0xx_gpio.c ****   *   This parameter can be one of the following value:
 456:..\..\STM32F0-Discovery_FW_V1.0.0\Libraries\STM32F0xx_StdPeriph_Driver\src/stm32f0xx_gpio.c ****  *     @arg GPIO_AF_0:WKUP, EVENTOUT, TIM15, SPI1, TIM17,MCO, SWDAT, SWCLK, TIM14,
 457:..\..\STM32F0-Discovery_FW_V1.0.0\Libraries\STM32F0xx_StdPeriph_Driver\src/stm32f0xx_gpio.c ****  *                    BOOT,USART1, CEC, IR_OUT, SPI2 
 458:..\..\STM32F0-Discovery_FW_V1.0.0\Libraries\STM32F0xx_StdPeriph_Driver\src/stm32f0xx_gpio.c ****  *     @arg GPIO_AF_1:USART2, CEC, Tim3, USART1, USART2,EVENTOUT, I2C1, I2C2, TIM15 
 459:..\..\STM32F0-Discovery_FW_V1.0.0\Libraries\STM32F0xx_StdPeriph_Driver\src/stm32f0xx_gpio.c ****  *     @arg GPIO_AF_2:TIM2, TIM1, EVENTOUT, TIM16, TIM17.
 460:..\..\STM32F0-Discovery_FW_V1.0.0\Libraries\STM32F0xx_StdPeriph_Driver\src/stm32f0xx_gpio.c ****  *     @arg GPIO_AF_3:TS, I2C1, TIM15, EVENTOUT 
 461:..\..\STM32F0-Discovery_FW_V1.0.0\Libraries\STM32F0xx_StdPeriph_Driver\src/stm32f0xx_gpio.c ****  *     @arg GPIO_AF_4:TIM14.
 462:..\..\STM32F0-Discovery_FW_V1.0.0\Libraries\STM32F0xx_StdPeriph_Driver\src/stm32f0xx_gpio.c ****  *     @arg GPIO_AF_5:TIM16, TIM17.
 463:..\..\STM32F0-Discovery_FW_V1.0.0\Libraries\STM32F0xx_StdPeriph_Driver\src/stm32f0xx_gpio.c ****  *     @arg GPIO_AF_6:EVENTOUT.
 464:..\..\STM32F0-Discovery_FW_V1.0.0\Libraries\STM32F0xx_StdPeriph_Driver\src/stm32f0xx_gpio.c ****  *     @arg GPIO_AF_7:COMP1 OUT, COMP2 OUT 
 465:..\..\STM32F0-Discovery_FW_V1.0.0\Libraries\STM32F0xx_StdPeriph_Driver\src/stm32f0xx_gpio.c ****  * @note  The pin should already been configured in Alternate Function mode(AF)
 466:..\..\STM32F0-Discovery_FW_V1.0.0\Libraries\STM32F0xx_StdPeriph_Driver\src/stm32f0xx_gpio.c ****  *        using GPIO_InitStruct->GPIO_Mode = GPIO_Mode_AF
 467:..\..\STM32F0-Discovery_FW_V1.0.0\Libraries\STM32F0xx_StdPeriph_Driver\src/stm32f0xx_gpio.c ****  * @note  Refer to the Alternate function mapping table in the device datasheet 
 468:..\..\STM32F0-Discovery_FW_V1.0.0\Libraries\STM32F0xx_StdPeriph_Driver\src/stm32f0xx_gpio.c ****  *        for the detailed mapping of the system and peripherals'alternate 
 469:..\..\STM32F0-Discovery_FW_V1.0.0\Libraries\STM32F0xx_StdPeriph_Driver\src/stm32f0xx_gpio.c ****  *        function I/O pins.
 470:..\..\STM32F0-Discovery_FW_V1.0.0\Libraries\STM32F0xx_StdPeriph_Driver\src/stm32f0xx_gpio.c ****  * @retval None
 471:..\..\STM32F0-Discovery_FW_V1.0.0\Libraries\STM32F0xx_StdPeriph_Driver\src/stm32f0xx_gpio.c ****  */
 472:..\..\STM32F0-Discovery_FW_V1.0.0\Libraries\STM32F0xx_StdPeriph_Driver\src/stm32f0xx_gpio.c **** void GPIO_PinAFConfig(GPIO_TypeDef* GPIOx, uint16_t GPIO_PinSource, uint8_t GPIO_AF)
 473:..\..\STM32F0-Discovery_FW_V1.0.0\Libraries\STM32F0xx_StdPeriph_Driver\src/stm32f0xx_gpio.c **** {
 570              		.loc 1 473 0
 571              		.cfi_startproc
 572              	.LVL39:
 474:..\..\STM32F0-Discovery_FW_V1.0.0\Libraries\STM32F0xx_StdPeriph_Driver\src/stm32f0xx_gpio.c ****   uint32_t temp = 0x00;
 475:..\..\STM32F0-Discovery_FW_V1.0.0\Libraries\STM32F0xx_StdPeriph_Driver\src/stm32f0xx_gpio.c ****   uint32_t temp_2 = 0x00;
 476:..\..\STM32F0-Discovery_FW_V1.0.0\Libraries\STM32F0xx_StdPeriph_Driver\src/stm32f0xx_gpio.c **** 
 477:..\..\STM32F0-Discovery_FW_V1.0.0\Libraries\STM32F0xx_StdPeriph_Driver\src/stm32f0xx_gpio.c ****   /* Check the parameters */
 478:..\..\STM32F0-Discovery_FW_V1.0.0\Libraries\STM32F0xx_StdPeriph_Driver\src/stm32f0xx_gpio.c ****   assert_param(IS_GPIO_LIST_PERIPH(GPIOx));
 479:..\..\STM32F0-Discovery_FW_V1.0.0\Libraries\STM32F0xx_StdPeriph_Driver\src/stm32f0xx_gpio.c ****   assert_param(IS_GPIO_PIN_SOURCE(GPIO_PinSource));
 480:..\..\STM32F0-Discovery_FW_V1.0.0\Libraries\STM32F0xx_StdPeriph_Driver\src/stm32f0xx_gpio.c ****   assert_param(IS_GPIO_AF(GPIO_AF));
 481:..\..\STM32F0-Discovery_FW_V1.0.0\Libraries\STM32F0xx_StdPeriph_Driver\src/stm32f0xx_gpio.c **** 
 482:..\..\STM32F0-Discovery_FW_V1.0.0\Libraries\STM32F0xx_StdPeriph_Driver\src/stm32f0xx_gpio.c ****   temp = ((uint32_t)(GPIO_AF) << ((uint32_t)((uint32_t)GPIO_PinSource & (uint32_t)0x07) * 4));
 573              		.loc 1 482 0
 574 0178 0723     		mov	r3, #7	@ tmp130,
 575 017a 0B40     		and	r3, r1	@ D.5012, GPIO_PinSource
 576 017c C908     		lsr	r1, r1, #3	@ D.5015, GPIO_PinSource,
 577              	.LVL40:
 578 017e 8900     		lsl	r1, r1, #2	@ D.5015, D.5015,
 579 0180 4018     		add	r0, r0, r1	@ D.5016, GPIOx, D.5015
 580              	.LVL41:
 473:..\..\STM32F0-Discovery_FW_V1.0.0\Libraries\STM32F0xx_StdPeriph_Driver\src/stm32f0xx_gpio.c **** {
 581              		.loc 1 473 0
 582 0182 10B5     		push	{r4, lr}	@
 583              	.LCFI3:
 584              		.cfi_def_cfa_offset 8
 585              		.cfi_offset 4, -8
ARM GAS  C:\Users\Patrick\AppData\Local\Temp\cc7hK0kh.s 			page 20


 586              		.cfi_offset 14, -4
 483:..\..\STM32F0-Discovery_FW_V1.0.0\Libraries\STM32F0xx_StdPeriph_Driver\src/stm32f0xx_gpio.c ****   GPIOx->AFR[GPIO_PinSource >> 0x03] &= ~((uint32_t)0xF << ((uint32_t)((uint32_t)GPIO_PinSource & (
 587              		.loc 1 483 0
 588 0184 016A     		ldr	r1, [r0, #32]	@ D.5012, MEM[(struct GPIO_TypeDef *)_23 + 32B]
 482:..\..\STM32F0-Discovery_FW_V1.0.0\Libraries\STM32F0xx_StdPeriph_Driver\src/stm32f0xx_gpio.c ****   temp = ((uint32_t)(GPIO_AF) << ((uint32_t)((uint32_t)GPIO_PinSource & (uint32_t)0x07) * 4));
 589              		.loc 1 482 0
 590 0186 9B00     		lsl	r3, r3, #2	@ D.5013, D.5012,
 591              	.LVL42:
 592              		.loc 1 483 0
 593 0188 0F24     		mov	r4, #15	@ tmp136,
 594 018a 9C40     		lsl	r4, r4, r3	@ D.5012, tmp136, D.5013
 595 018c A143     		bic	r1, r4	@ D.5012, D.5012
 596 018e 0162     		str	r1, [r0, #32]	@ D.5012, MEM[(struct GPIO_TypeDef *)_23 + 32B]
 484:..\..\STM32F0-Discovery_FW_V1.0.0\Libraries\STM32F0xx_StdPeriph_Driver\src/stm32f0xx_gpio.c ****   temp_2 = GPIOx->AFR[GPIO_PinSource >> 0x03] | temp;
 597              		.loc 1 484 0
 598 0190 016A     		ldr	r1, [r0, #32]	@ D.5012, MEM[(struct GPIO_TypeDef *)_23 + 32B]
 482:..\..\STM32F0-Discovery_FW_V1.0.0\Libraries\STM32F0xx_StdPeriph_Driver\src/stm32f0xx_gpio.c ****   temp = ((uint32_t)(GPIO_AF) << ((uint32_t)((uint32_t)GPIO_PinSource & (uint32_t)0x07) * 4));
 599              		.loc 1 482 0
 600 0192 9A40     		lsl	r2, r2, r3	@ GPIO_AF, GPIO_AF, D.5013
 601              	.LVL43:
 602 0194 131C     		mov	r3, r2	@ temp, GPIO_AF
 603              		.loc 1 484 0
 604 0196 0B43     		orr	r3, r1	@ temp_2, D.5012
 605              	.LVL44:
 485:..\..\STM32F0-Discovery_FW_V1.0.0\Libraries\STM32F0xx_StdPeriph_Driver\src/stm32f0xx_gpio.c ****   GPIOx->AFR[GPIO_PinSource >> 0x03] = temp_2;
 606              		.loc 1 485 0
 607 0198 0362     		str	r3, [r0, #32]	@ temp_2, MEM[(struct GPIO_TypeDef *)_23 + 32B]
 486:..\..\STM32F0-Discovery_FW_V1.0.0\Libraries\STM32F0xx_StdPeriph_Driver\src/stm32f0xx_gpio.c **** }
 608              		.loc 1 486 0
 609              		@ sp needed	@
 610 019a 10BD     		pop	{r4, pc}
 611              		.cfi_endproc
 612              	.LFE44:
 613              		.size	GPIO_PinAFConfig, .-GPIO_PinAFConfig
 614              	.Letext0:
 615              		.file 2 "c:\\program files (x86)\\gnu tools arm embedded\\4.8 2013q4\\arm-none-eabi\\include\\stdi
 616              		.file 3 "..\\..\\STM32F0-Discovery_FW_V1.0.0\\Libraries\\CMSIS\\ST\\STM32F0xx\\Include/stm32f0xx.h
 617              		.file 4 "..\\..\\STM32F0-Discovery_FW_V1.0.0\\Libraries\\STM32F0xx_StdPeriph_Driver\\inc/stm32f0xx
 618              		.file 5 "..\\..\\STM32F0-Discovery_FW_V1.0.0\\Libraries\\STM32F0xx_StdPeriph_Driver\\inc/stm32f0xx